TMS320C6x Assembler PC v7.4.18 Mon Oct 30 12:06:01 2023

Tools Copyright (c) 1996-2015 Texas Instruments Incorporated
C:\Users\Lenovo\AppData\Local\Temp\1693210                           PAGE    1

       1                    ;******************************************************************************
       2                    ;* TMS320C6x C/C++ Codegen                                         PC v7.4.18 *
       3                    ;* Date/Time created: Mon Oct 30 12:06:01 2023                                *
       4                    ;******************************************************************************
       5                            .compiler_opts --abi=coffabi --c64p_l1d_workaround=default --endian=little --hll_source=on --l
       6                    
       7                    ;******************************************************************************
       8                    ;* GLOBAL FILE PARAMETERS                                                     *
       9                    ;*                                                                            *
      10                    ;*   Architecture      : TMS320C670x                                          *
      11                    ;*   Optimization      : Enabled at level 2                                   *
      12                    ;*   Optimizing for    : Speed                                                *
      13                    ;*                       Based on options: -o2, no -ms                        *
      14                    ;*   Endian            : Little                                               *
      15                    ;*   Interrupt Thrshld : Disabled                                             *
      16                    ;*   Data Access Model : Far                                                  *
      17                    ;*   Pipelining        : Enabled                                              *
      18                    ;*   Speculate Loads   : Enabled with threshold = 0                           *
      19                    ;*   Memory Aliases    : Presume are aliases (pessimistic)                    *
      20                    ;*   Debug Info        : DWARF Debug                                          *
      21                    ;*                                                                            *
      22                    ;******************************************************************************
      23                    
      24                            .asg    A15, FP
      25                            .asg    B14, DP
      26                            .asg    B15, SP
      27                            .global $bss
      28                    
      29                    
      30                    $C$DW$CU        .dwtag  DW_TAG_compile_unit
      31                            .dwattr $C$DW$CU, DW_AT_name("../main.c")
      32                            .dwattr $C$DW$CU, DW_AT_producer("TMS320C6x C/C++ Codegen PC v7.4.18 Copyright (c) 1996-2015 T
      33                            .dwattr $C$DW$CU, DW_AT_TI_version(0x01)
      34                            .dwattr $C$DW$CU, DW_AT_comp_dir("D:\ti_v6_2\DSP_Worspace_2023_Gr2\TP3_Goertzel\Debug")
      35                    ;*****************************************************************************
      36                    ;* CINIT RECORDS                                                             *
      37                    ;*****************************************************************************
      38 00000000                   .sect   ".cinit"
      39                            .align  8
      40 00000000 00000180          .field          $C$IR_1,32
      41 00000004 00000000-         .field          _XnBufferExcel+0,32
      42 00000008 00000000          .bits   0,16                    ; _XnBufferExcel[0] @ 0
      43 00000008 7EE80000          .bits   32488,16                        ; _XnBufferExcel[1] @ 16
      44 0000000c 00002121          .bits   8481,16                 ; _XnBufferExcel[2] @ 32
      45 0000000c 89BE2121          .bits   35262,16                        ; _XnBufferExcel[3] @ 48
      46 00000010 0000C000          .bits   49152,16                        ; _XnBufferExcel[4] @ 64
      47 00000010 658DC000          .bits   25997,16                        ; _XnBufferExcel[5] @ 80
      48 00000014 00005A82          .bits   23170,16                        ; _XnBufferExcel[6] @ 96
      49 00000014 B2145A82          .bits   45588,16                        ; _XnBufferExcel[7] @ 112
      50 00000018 00009126          .bits   37158,16                        ; _XnBufferExcel[8] @ 128
      51 00000018 30FC9126          .bits   12540,16                        ; _XnBufferExcel[9] @ 144
      52 0000001c 00007BA3          .bits   31651,16                        ; _XnBufferExcel[10] @ 160
      53 0000001c EF4B7BA3          .bits   61259,16                        ; _XnBufferExcel[11] @ 176
      54 00000020 00008000          .bits   32768,16                        ; _XnBufferExcel[12] @ 192
      55 00000020 EF4B8000          .bits   61259,16                        ; _XnBufferExcel[13] @ 208
TMS320C6x Assembler PC v7.4.18 Mon Oct 30 12:06:01 2023

Tools Copyright (c) 1996-2015 Texas Instruments Incorporated
C:\Users\Lenovo\AppData\Local\Temp\1693210                           PAGE    2

      56 00000024 00007BA3          .bits   31651,16                        ; _XnBufferExcel[14] @ 224
      57 00000024 30FC7BA3          .bits   12540,16                        ; _XnBufferExcel[15] @ 240
      58 00000028 00009126          .bits   37158,16                        ; _XnBufferExcel[16] @ 256
      59 00000028 B2149126          .bits   45588,16                        ; _XnBufferExcel[17] @ 272
      60 0000002c 00005A82          .bits   23170,16                        ; _XnBufferExcel[18] @ 288
      61 0000002c 658D5A82          .bits   25997,16                        ; _XnBufferExcel[19] @ 304
      62 00000030 0000C000          .bits   49152,16                        ; _XnBufferExcel[20] @ 320
      63 00000030 89BEC000          .bits   35262,16                        ; _XnBufferExcel[21] @ 336
      64 00000034 00002121          .bits   8481,16                 ; _XnBufferExcel[22] @ 352
      65 00000034 7EE82121          .bits   32488,16                        ; _XnBufferExcel[23] @ 368
      66 00000038 00000000          .bits   0,16                    ; _XnBufferExcel[24] @ 384
      67 00000038 81180000          .bits   33048,16                        ; _XnBufferExcel[25] @ 400
      68 0000003c 0000DEDF          .bits   57055,16                        ; _XnBufferExcel[26] @ 416
      69 0000003c 7642DEDF          .bits   30274,16                        ; _XnBufferExcel[27] @ 432
      70 00000040 00004000          .bits   16384,16                        ; _XnBufferExcel[28] @ 448
      71 00000040 9A734000          .bits   39539,16                        ; _XnBufferExcel[29] @ 464
      72 00000044 0000A57E          .bits   42366,16                        ; _XnBufferExcel[30] @ 480
      73 00000044 4DECA57E          .bits   19948,16                        ; _XnBufferExcel[31] @ 496
      74 00000048 00006EDA          .bits   28378,16                        ; _XnBufferExcel[32] @ 512
      75 00000048 CF046EDA          .bits   52996,16                        ; _XnBufferExcel[33] @ 528
      76 0000004c 0000845D          .bits   33885,16                        ; _XnBufferExcel[34] @ 544
      77 0000004c 10B5845D          .bits   4277,16                 ; _XnBufferExcel[35] @ 560
      78 00000050 00007FFF          .bits   32767,16                        ; _XnBufferExcel[36] @ 576
      79 00000050 10B57FFF          .bits   4277,16                 ; _XnBufferExcel[37] @ 592
      80 00000054 0000845D          .bits   33885,16                        ; _XnBufferExcel[38] @ 608
      81 00000054 CF04845D          .bits   52996,16                        ; _XnBufferExcel[39] @ 624
      82 00000058 00006EDA          .bits   28378,16                        ; _XnBufferExcel[40] @ 640
      83 00000058 4DEC6EDA          .bits   19948,16                        ; _XnBufferExcel[41] @ 656
      84 0000005c 0000A57E          .bits   42366,16                        ; _XnBufferExcel[42] @ 672
      85 0000005c 9A73A57E          .bits   39539,16                        ; _XnBufferExcel[43] @ 688
      86 00000060 00004000          .bits   16384,16                        ; _XnBufferExcel[44] @ 704
      87 00000060 76424000          .bits   30274,16                        ; _XnBufferExcel[45] @ 720
      88 00000064 0000DEDF          .bits   57055,16                        ; _XnBufferExcel[46] @ 736
      89 00000064 8118DEDF          .bits   33048,16                        ; _XnBufferExcel[47] @ 752
      90 00000068 00000000          .bits   0,16                    ; _XnBufferExcel[48] @ 768
      91 00000068 7EE80000          .bits   32488,16                        ; _XnBufferExcel[49] @ 784
      92 0000006c 00002121          .bits   8481,16                 ; _XnBufferExcel[50] @ 800
      93 0000006c 89BE2121          .bits   35262,16                        ; _XnBufferExcel[51] @ 816
      94 00000070 0000C000          .bits   49152,16                        ; _XnBufferExcel[52] @ 832
      95 00000070 658DC000          .bits   25997,16                        ; _XnBufferExcel[53] @ 848
      96 00000074 00005A82          .bits   23170,16                        ; _XnBufferExcel[54] @ 864
      97 00000074 B2145A82          .bits   45588,16                        ; _XnBufferExcel[55] @ 880
      98 00000078 00009126          .bits   37158,16                        ; _XnBufferExcel[56] @ 896
      99 00000078 30FC9126          .bits   12540,16                        ; _XnBufferExcel[57] @ 912
     100 0000007c 00007BA3          .bits   31651,16                        ; _XnBufferExcel[58] @ 928
     101 0000007c EF4B7BA3          .bits   61259,16                        ; _XnBufferExcel[59] @ 944
     102 00000080 00008000          .bits   32768,16                        ; _XnBufferExcel[60] @ 960
     103 00000080 EF4B8000          .bits   61259,16                        ; _XnBufferExcel[61] @ 976
     104 00000084 00007BA3          .bits   31651,16                        ; _XnBufferExcel[62] @ 992
     105 00000084 30FC7BA3          .bits   12540,16                        ; _XnBufferExcel[63] @ 1008
     106 00000088 00009126          .bits   37158,16                        ; _XnBufferExcel[64] @ 1024
     107 00000088 B2149126          .bits   45588,16                        ; _XnBufferExcel[65] @ 1040
     108 0000008c 00005A82          .bits   23170,16                        ; _XnBufferExcel[66] @ 1056
     109 0000008c 658D5A82          .bits   25997,16                        ; _XnBufferExcel[67] @ 1072
     110 00000090 0000C000          .bits   49152,16                        ; _XnBufferExcel[68] @ 1088
TMS320C6x Assembler PC v7.4.18 Mon Oct 30 12:06:01 2023

Tools Copyright (c) 1996-2015 Texas Instruments Incorporated
C:\Users\Lenovo\AppData\Local\Temp\1693210                           PAGE    3

     111 00000090 89BEC000          .bits   35262,16                        ; _XnBufferExcel[69] @ 1104
     112 00000094 00002121          .bits   8481,16                 ; _XnBufferExcel[70] @ 1120
     113 00000094 7EE82121          .bits   32488,16                        ; _XnBufferExcel[71] @ 1136
     114 00000098 00000000          .bits   0,16                    ; _XnBufferExcel[72] @ 1152
     115 00000098 81180000          .bits   33048,16                        ; _XnBufferExcel[73] @ 1168
     116 0000009c 0000DEDF          .bits   57055,16                        ; _XnBufferExcel[74] @ 1184
     117 0000009c 7642DEDF          .bits   30274,16                        ; _XnBufferExcel[75] @ 1200
     118 000000a0 00004000          .bits   16384,16                        ; _XnBufferExcel[76] @ 1216
     119 000000a0 9A734000          .bits   39539,16                        ; _XnBufferExcel[77] @ 1232
     120 000000a4 0000A57E          .bits   42366,16                        ; _XnBufferExcel[78] @ 1248
     121 000000a4 4DECA57E          .bits   19948,16                        ; _XnBufferExcel[79] @ 1264
     122 000000a8 00006EDA          .bits   28378,16                        ; _XnBufferExcel[80] @ 1280
     123 000000a8 CF046EDA          .bits   52996,16                        ; _XnBufferExcel[81] @ 1296
     124 000000ac 0000845D          .bits   33885,16                        ; _XnBufferExcel[82] @ 1312
     125 000000ac 10B5845D          .bits   4277,16                 ; _XnBufferExcel[83] @ 1328
     126 000000b0 00007FFF          .bits   32767,16                        ; _XnBufferExcel[84] @ 1344
     127 000000b0 10B57FFF          .bits   4277,16                 ; _XnBufferExcel[85] @ 1360
     128 000000b4 0000845D          .bits   33885,16                        ; _XnBufferExcel[86] @ 1376
     129 000000b4 CF04845D          .bits   52996,16                        ; _XnBufferExcel[87] @ 1392
     130 000000b8 00006EDA          .bits   28378,16                        ; _XnBufferExcel[88] @ 1408
     131 000000b8 4DEC6EDA          .bits   19948,16                        ; _XnBufferExcel[89] @ 1424
     132 000000bc 0000A57E          .bits   42366,16                        ; _XnBufferExcel[90] @ 1440
     133 000000bc 9A73A57E          .bits   39539,16                        ; _XnBufferExcel[91] @ 1456
     134 000000c0 00004000          .bits   16384,16                        ; _XnBufferExcel[92] @ 1472
     135 000000c0 76424000          .bits   30274,16                        ; _XnBufferExcel[93] @ 1488
     136 000000c4 0000DEDF          .bits   57055,16                        ; _XnBufferExcel[94] @ 1504
     137 000000c4 8118DEDF          .bits   33048,16                        ; _XnBufferExcel[95] @ 1520
     138 000000c8 00000000          .bits   0,16                    ; _XnBufferExcel[96] @ 1536
     139 000000c8 7EE80000          .bits   32488,16                        ; _XnBufferExcel[97] @ 1552
     140 000000cc 00002121          .bits   8481,16                 ; _XnBufferExcel[98] @ 1568
     141 000000cc 89BE2121          .bits   35262,16                        ; _XnBufferExcel[99] @ 1584
     142 000000d0 0000C000          .bits   49152,16                        ; _XnBufferExcel[100] @ 1600
     143 000000d0 658DC000          .bits   25997,16                        ; _XnBufferExcel[101] @ 1616
     144 000000d4 00005A82          .bits   23170,16                        ; _XnBufferExcel[102] @ 1632
     145 000000d4 B2145A82          .bits   45588,16                        ; _XnBufferExcel[103] @ 1648
     146 000000d8 00009126          .bits   37158,16                        ; _XnBufferExcel[104] @ 1664
     147 000000d8 30FC9126          .bits   12540,16                        ; _XnBufferExcel[105] @ 1680
     148 000000dc 00007BA3          .bits   31651,16                        ; _XnBufferExcel[106] @ 1696
     149 000000dc EF4B7BA3          .bits   61259,16                        ; _XnBufferExcel[107] @ 1712
     150 000000e0 00008000          .bits   32768,16                        ; _XnBufferExcel[108] @ 1728
     151 000000e0 EF4B8000          .bits   61259,16                        ; _XnBufferExcel[109] @ 1744
     152 000000e4 00007BA3          .bits   31651,16                        ; _XnBufferExcel[110] @ 1760
     153 000000e4 30FC7BA3          .bits   12540,16                        ; _XnBufferExcel[111] @ 1776
     154 000000e8 00009126          .bits   37158,16                        ; _XnBufferExcel[112] @ 1792
     155 000000e8 B2149126          .bits   45588,16                        ; _XnBufferExcel[113] @ 1808
     156 000000ec 00005A82          .bits   23170,16                        ; _XnBufferExcel[114] @ 1824
     157 000000ec 658D5A82          .bits   25997,16                        ; _XnBufferExcel[115] @ 1840
     158 000000f0 0000C000          .bits   49152,16                        ; _XnBufferExcel[116] @ 1856
     159 000000f0 89BEC000          .bits   35262,16                        ; _XnBufferExcel[117] @ 1872
     160 000000f4 00002121          .bits   8481,16                 ; _XnBufferExcel[118] @ 1888
     161 000000f4 7EE82121          .bits   32488,16                        ; _XnBufferExcel[119] @ 1904
     162 000000f8 00000000          .bits   0,16                    ; _XnBufferExcel[120] @ 1920
     163 000000f8 81180000          .bits   33048,16                        ; _XnBufferExcel[121] @ 1936
     164 000000fc 0000DEDF          .bits   57055,16                        ; _XnBufferExcel[122] @ 1952
     165 000000fc 7642DEDF          .bits   30274,16                        ; _XnBufferExcel[123] @ 1968
TMS320C6x Assembler PC v7.4.18 Mon Oct 30 12:06:01 2023

Tools Copyright (c) 1996-2015 Texas Instruments Incorporated
C:\Users\Lenovo\AppData\Local\Temp\1693210                           PAGE    4

     166 00000100 00004000          .bits   16384,16                        ; _XnBufferExcel[124] @ 1984
     167 00000100 9A734000          .bits   39539,16                        ; _XnBufferExcel[125] @ 2000
     168 00000104 0000A57E          .bits   42366,16                        ; _XnBufferExcel[126] @ 2016
     169 00000104 4DECA57E          .bits   19948,16                        ; _XnBufferExcel[127] @ 2032
     170 00000108 00006EDA          .bits   28378,16                        ; _XnBufferExcel[128] @ 2048
     171 00000108 CF046EDA          .bits   52996,16                        ; _XnBufferExcel[129] @ 2064
     172 0000010c 0000845D          .bits   33885,16                        ; _XnBufferExcel[130] @ 2080
     173 0000010c 10B5845D          .bits   4277,16                 ; _XnBufferExcel[131] @ 2096
     174 00000110 00007FFF          .bits   32767,16                        ; _XnBufferExcel[132] @ 2112
     175 00000110 10B57FFF          .bits   4277,16                 ; _XnBufferExcel[133] @ 2128
     176 00000114 0000845D          .bits   33885,16                        ; _XnBufferExcel[134] @ 2144
     177 00000114 CF04845D          .bits   52996,16                        ; _XnBufferExcel[135] @ 2160
     178 00000118 00006EDA          .bits   28378,16                        ; _XnBufferExcel[136] @ 2176
     179 00000118 4DEC6EDA          .bits   19948,16                        ; _XnBufferExcel[137] @ 2192
     180 0000011c 0000A57E          .bits   42366,16                        ; _XnBufferExcel[138] @ 2208
     181 0000011c 9A73A57E          .bits   39539,16                        ; _XnBufferExcel[139] @ 2224
     182 00000120 00004000          .bits   16384,16                        ; _XnBufferExcel[140] @ 2240
     183 00000120 76424000          .bits   30274,16                        ; _XnBufferExcel[141] @ 2256
     184 00000124 0000DEDF          .bits   57055,16                        ; _XnBufferExcel[142] @ 2272
     185 00000124 8118DEDF          .bits   33048,16                        ; _XnBufferExcel[143] @ 2288
     186 00000128 00000000          .bits   0,16                    ; _XnBufferExcel[144] @ 2304
     187 00000128 7EE80000          .bits   32488,16                        ; _XnBufferExcel[145] @ 2320
     188 0000012c 00002121          .bits   8481,16                 ; _XnBufferExcel[146] @ 2336
     189 0000012c 89BE2121          .bits   35262,16                        ; _XnBufferExcel[147] @ 2352
     190 00000130 0000C000          .bits   49152,16                        ; _XnBufferExcel[148] @ 2368
     191 00000130 658DC000          .bits   25997,16                        ; _XnBufferExcel[149] @ 2384
     192 00000134 00005A82          .bits   23170,16                        ; _XnBufferExcel[150] @ 2400
     193 00000134 B2145A82          .bits   45588,16                        ; _XnBufferExcel[151] @ 2416
     194 00000138 00009126          .bits   37158,16                        ; _XnBufferExcel[152] @ 2432
     195 00000138 30FC9126          .bits   12540,16                        ; _XnBufferExcel[153] @ 2448
     196 0000013c 00007BA3          .bits   31651,16                        ; _XnBufferExcel[154] @ 2464
     197 0000013c EF4B7BA3          .bits   61259,16                        ; _XnBufferExcel[155] @ 2480
     198 00000140 00008000          .bits   32768,16                        ; _XnBufferExcel[156] @ 2496
     199 00000140 EF4B8000          .bits   61259,16                        ; _XnBufferExcel[157] @ 2512
     200 00000144 00007BA3          .bits   31651,16                        ; _XnBufferExcel[158] @ 2528
     201 00000144 30FC7BA3          .bits   12540,16                        ; _XnBufferExcel[159] @ 2544
     202 00000148 00009126          .bits   37158,16                        ; _XnBufferExcel[160] @ 2560
     203 00000148 B2149126          .bits   45588,16                        ; _XnBufferExcel[161] @ 2576
     204 0000014c 00005A82          .bits   23170,16                        ; _XnBufferExcel[162] @ 2592
     205 0000014c 658D5A82          .bits   25997,16                        ; _XnBufferExcel[163] @ 2608
     206 00000150 0000C000          .bits   49152,16                        ; _XnBufferExcel[164] @ 2624
     207 00000150 89BEC000          .bits   35262,16                        ; _XnBufferExcel[165] @ 2640
     208 00000154 00002121          .bits   8481,16                 ; _XnBufferExcel[166] @ 2656
     209 00000154 7EE82121          .bits   32488,16                        ; _XnBufferExcel[167] @ 2672
     210 00000158 00000000          .bits   0,16                    ; _XnBufferExcel[168] @ 2688
     211 00000158 81180000          .bits   33048,16                        ; _XnBufferExcel[169] @ 2704
     212 0000015c 0000DEDF          .bits   57055,16                        ; _XnBufferExcel[170] @ 2720
     213 0000015c 7642DEDF          .bits   30274,16                        ; _XnBufferExcel[171] @ 2736
     214 00000160 00004000          .bits   16384,16                        ; _XnBufferExcel[172] @ 2752
     215 00000160 9A734000          .bits   39539,16                        ; _XnBufferExcel[173] @ 2768
     216 00000164 0000A57E          .bits   42366,16                        ; _XnBufferExcel[174] @ 2784
     217 00000164 4DECA57E          .bits   19948,16                        ; _XnBufferExcel[175] @ 2800
     218 00000168 00006EDA          .bits   28378,16                        ; _XnBufferExcel[176] @ 2816
     219 00000168 CF046EDA          .bits   52996,16                        ; _XnBufferExcel[177] @ 2832
     220 0000016c 0000845D          .bits   33885,16                        ; _XnBufferExcel[178] @ 2848
TMS320C6x Assembler PC v7.4.18 Mon Oct 30 12:06:01 2023

Tools Copyright (c) 1996-2015 Texas Instruments Incorporated
C:\Users\Lenovo\AppData\Local\Temp\1693210                           PAGE    5

     221 0000016c 10B5845D          .bits   4277,16                 ; _XnBufferExcel[179] @ 2864
     222 00000170 00007FFF          .bits   32767,16                        ; _XnBufferExcel[180] @ 2880
     223 00000170 10B57FFF          .bits   4277,16                 ; _XnBufferExcel[181] @ 2896
     224 00000174 0000845D          .bits   33885,16                        ; _XnBufferExcel[182] @ 2912
     225 00000174 CF04845D          .bits   52996,16                        ; _XnBufferExcel[183] @ 2928
     226 00000178 00006EDA          .bits   28378,16                        ; _XnBufferExcel[184] @ 2944
     227 00000178 4DEC6EDA          .bits   19948,16                        ; _XnBufferExcel[185] @ 2960
     228 0000017c 0000A57E          .bits   42366,16                        ; _XnBufferExcel[186] @ 2976
     229 0000017c 9A73A57E          .bits   39539,16                        ; _XnBufferExcel[187] @ 2992
     230 00000180 00004000          .bits   16384,16                        ; _XnBufferExcel[188] @ 3008
     231 00000180 76424000          .bits   30274,16                        ; _XnBufferExcel[189] @ 3024
     232 00000184 0000DEDF          .bits   57055,16                        ; _XnBufferExcel[190] @ 3040
     233 00000184 8118DEDF          .bits   33048,16                        ; _XnBufferExcel[191] @ 3056
     234          00000180  $C$IR_1:        .set    384
     235                    
     236 00000188                   .sect   ".cinit"
     237                            .align  8
     238 00000188 00000010          .field          $C$IR_2,32
     239 0000018c 00000180-         .field          _Coeff+0,32
     240 00000190 00005A2D          .bits   23085,16                        ; _Coeff[0] @ 0
     241 00000190 524A5A2D          .bits   21066,16                        ; _Coeff[1] @ 16
     242 00000194 00004A50          .bits   19024,16                        ; _Coeff[2] @ 32
     243 00000194 42424A50          .bits   16962,16                        ; _Coeff[3] @ 48
     244 00000198 00003A22          .bits   14882,16                        ; _Coeff[4] @ 64
     245 00000198 31F13A22          .bits   12785,16                        ; _Coeff[5] @ 80
     246 0000019c 000029B4          .bits   10676,16                        ; _Coeff[6] @ 96
     247 0000019c 216A29B4          .bits   8554,16                 ; _Coeff[7] @ 112
     248          00000010  $C$IR_2:        .set    16
     249                    
     250 000001a0                   .sect   ".cinit"
     251                            .align  8
     252 000001a0 00000180          .field          $C$IR_3,32
     253 000001a4 00000190-         .field          _TabSinus1Hz+0,32
     254 000001a8 00004000          .bits   16384,16                        ; _TabSinus1Hz[0] @ 0
     255 000001a8 3FF74000          .bits   16375,16                        ; _TabSinus1Hz[1] @ 16
     256 000001ac 00003FDD          .bits   16349,16                        ; _TabSinus1Hz[2] @ 32
     257 000001ac 3FB13FDD          .bits   16305,16                        ; _TabSinus1Hz[3] @ 48
     258 000001b0 00003F74          .bits   16244,16                        ; _TabSinus1Hz[4] @ 64
     259 000001b0 3F253F74          .bits   16165,16                        ; _TabSinus1Hz[5] @ 80
     260 000001b4 00003EC5          .bits   16069,16                        ; _TabSinus1Hz[6] @ 96
     261 000001b4 3E543EC5          .bits   15956,16                        ; _TabSinus1Hz[7] @ 112
     262 000001b8 00003DD2          .bits   15826,16                        ; _TabSinus1Hz[8] @ 128
     263 000001b8 3D3F3DD2          .bits   15679,16                        ; _TabSinus1Hz[9] @ 144
     264 000001bc 00003C9B          .bits   15515,16                        ; _TabSinus1Hz[10] @ 160
     265 000001bc 3BE63C9B          .bits   15334,16                        ; _TabSinus1Hz[11] @ 176
     266 000001c0 00003B21          .bits   15137,16                        ; _TabSinus1Hz[12] @ 192
     267 000001c0 3A4C3B21          .bits   14924,16                        ; _TabSinus1Hz[13] @ 208
     268 000001c4 00003966          .bits   14694,16                        ; _TabSinus1Hz[14] @ 224
     269 000001c4 38713966          .bits   14449,16                        ; _TabSinus1Hz[15] @ 240
     270 000001c8 0000376D          .bits   14189,16                        ; _TabSinus1Hz[16] @ 256
     271 000001c8 3659376D          .bits   13913,16                        ; _TabSinus1Hz[17] @ 272
     272 000001cc 00003537          .bits   13623,16                        ; _TabSinus1Hz[18] @ 288
     273 000001cc 34063537          .bits   13318,16                        ; _TabSinus1Hz[19] @ 304
     274 000001d0 000032C6          .bits   12998,16                        ; _TabSinus1Hz[20] @ 320
     275 000001d0 317932C6          .bits   12665,16                        ; _TabSinus1Hz[21] @ 336
TMS320C6x Assembler PC v7.4.18 Mon Oct 30 12:06:01 2023

Tools Copyright (c) 1996-2015 Texas Instruments Incorporated
C:\Users\Lenovo\AppData\Local\Temp\1693210                           PAGE    6

     276 000001d4 0000301E          .bits   12318,16                        ; _TabSinus1Hz[22] @ 352
     277 000001d4 2EB6301E          .bits   11958,16                        ; _TabSinus1Hz[23] @ 368
     278 000001d8 00002D41          .bits   11585,16                        ; _TabSinus1Hz[24] @ 384
     279 000001d8 2BC02D41          .bits   11200,16                        ; _TabSinus1Hz[25] @ 400
     280 000001dc 00002A33          .bits   10803,16                        ; _TabSinus1Hz[26] @ 416
     281 000001dc 289A2A33          .bits   10394,16                        ; _TabSinus1Hz[27] @ 432
     282 000001e0 000026F6          .bits   9974,16                 ; _TabSinus1Hz[28] @ 448
     283 000001e0 254726F6          .bits   9543,16                 ; _TabSinus1Hz[29] @ 464
     284 000001e4 0000238E          .bits   9102,16                 ; _TabSinus1Hz[30] @ 480
     285 000001e4 21CC238E          .bits   8652,16                 ; _TabSinus1Hz[31] @ 496
     286 000001e8 00002000          .bits   8192,16                 ; _TabSinus1Hz[32] @ 512
     287 000001e8 1E2B2000          .bits   7723,16                 ; _TabSinus1Hz[33] @ 528
     288 000001ec 00001C4E          .bits   7246,16                 ; _TabSinus1Hz[34] @ 544
     289 000001ec 1A6A1C4E          .bits   6762,16                 ; _TabSinus1Hz[35] @ 560
     290 000001f0 0000187E          .bits   6270,16                 ; _TabSinus1Hz[36] @ 576
     291 000001f0 168B187E          .bits   5771,16                 ; _TabSinus1Hz[37] @ 592
     292 000001f4 00001492          .bits   5266,16                 ; _TabSinus1Hz[38] @ 608
     293 000001f4 12941492          .bits   4756,16                 ; _TabSinus1Hz[39] @ 624
     294 000001f8 00001090          .bits   4240,16                 ; _TabSinus1Hz[40] @ 640
     295 000001f8 0E881090          .bits   3720,16                 ; _TabSinus1Hz[41] @ 656
     296 000001fc 00000C7C          .bits   3196,16                 ; _TabSinus1Hz[42] @ 672
     297 000001fc 0A6D0C7C          .bits   2669,16                 ; _TabSinus1Hz[43] @ 688
     298 00000200 0000085B          .bits   2139,16                 ; _TabSinus1Hz[44] @ 704
     299 00000200 0646085B          .bits   1606,16                 ; _TabSinus1Hz[45] @ 720
     300 00000204 00000430          .bits   1072,16                 ; _TabSinus1Hz[46] @ 736
     301 00000204 02180430          .bits   536,16                  ; _TabSinus1Hz[47] @ 752
     302 00000208 00000000          .bits   0,16                    ; _TabSinus1Hz[48] @ 768
     303 00000208 FDE80000          .bits   65000,16                        ; _TabSinus1Hz[49] @ 784
     304 0000020c 0000FBD0          .bits   64464,16                        ; _TabSinus1Hz[50] @ 800
     305 0000020c F9BAFBD0          .bits   63930,16                        ; _TabSinus1Hz[51] @ 816
     306 00000210 0000F7A5          .bits   63397,16                        ; _TabSinus1Hz[52] @ 832
     307 00000210 F593F7A5          .bits   62867,16                        ; _TabSinus1Hz[53] @ 848
     308 00000214 0000F384          .bits   62340,16                        ; _TabSinus1Hz[54] @ 864
     309 00000214 F178F384          .bits   61816,16                        ; _TabSinus1Hz[55] @ 880
     310 00000218 0000EF70          .bits   61296,16                        ; _TabSinus1Hz[56] @ 896
     311 00000218 ED6CEF70          .bits   60780,16                        ; _TabSinus1Hz[57] @ 912
     312 0000021c 0000EB6E          .bits   60270,16                        ; _TabSinus1Hz[58] @ 928
     313 0000021c E975EB6E          .bits   59765,16                        ; _TabSinus1Hz[59] @ 944
     314 00000220 0000E782          .bits   59266,16                        ; _TabSinus1Hz[60] @ 960
     315 00000220 E596E782          .bits   58774,16                        ; _TabSinus1Hz[61] @ 976
     316 00000224 0000E3B2          .bits   58290,16                        ; _TabSinus1Hz[62] @ 992
     317 00000224 E1D5E3B2          .bits   57813,16                        ; _TabSinus1Hz[63] @ 1008
     318 00000228 0000E000          .bits   57344,16                        ; _TabSinus1Hz[64] @ 1024
     319 00000228 DE34E000          .bits   56884,16                        ; _TabSinus1Hz[65] @ 1040
     320 0000022c 0000DC72          .bits   56434,16                        ; _TabSinus1Hz[66] @ 1056
     321 0000022c DAB9DC72          .bits   55993,16                        ; _TabSinus1Hz[67] @ 1072
     322 00000230 0000D90A          .bits   55562,16                        ; _TabSinus1Hz[68] @ 1088
     323 00000230 D766D90A          .bits   55142,16                        ; _TabSinus1Hz[69] @ 1104
     324 00000234 0000D5CD          .bits   54733,16                        ; _TabSinus1Hz[70] @ 1120
     325 00000234 D440D5CD          .bits   54336,16                        ; _TabSinus1Hz[71] @ 1136
     326 00000238 0000D2BF          .bits   53951,16                        ; _TabSinus1Hz[72] @ 1152
     327 00000238 D14AD2BF          .bits   53578,16                        ; _TabSinus1Hz[73] @ 1168
     328 0000023c 0000CFE2          .bits   53218,16                        ; _TabSinus1Hz[74] @ 1184
     329 0000023c CE87CFE2          .bits   52871,16                        ; _TabSinus1Hz[75] @ 1200
     330 00000240 0000CD3A          .bits   52538,16                        ; _TabSinus1Hz[76] @ 1216
TMS320C6x Assembler PC v7.4.18 Mon Oct 30 12:06:01 2023

Tools Copyright (c) 1996-2015 Texas Instruments Incorporated
C:\Users\Lenovo\AppData\Local\Temp\1693210                           PAGE    7

     331 00000240 CBFACD3A          .bits   52218,16                        ; _TabSinus1Hz[77] @ 1232
     332 00000244 0000CAC9          .bits   51913,16                        ; _TabSinus1Hz[78] @ 1248
     333 00000244 C9A7CAC9          .bits   51623,16                        ; _TabSinus1Hz[79] @ 1264
     334 00000248 0000C893          .bits   51347,16                        ; _TabSinus1Hz[80] @ 1280
     335 00000248 C78FC893          .bits   51087,16                        ; _TabSinus1Hz[81] @ 1296
     336 0000024c 0000C69A          .bits   50842,16                        ; _TabSinus1Hz[82] @ 1312
     337 0000024c C5B4C69A          .bits   50612,16                        ; _TabSinus1Hz[83] @ 1328
     338 00000250 0000C4DF          .bits   50399,16                        ; _TabSinus1Hz[84] @ 1344
     339 00000250 C41AC4DF          .bits   50202,16                        ; _TabSinus1Hz[85] @ 1360
     340 00000254 0000C365          .bits   50021,16                        ; _TabSinus1Hz[86] @ 1376
     341 00000254 C2C1C365          .bits   49857,16                        ; _TabSinus1Hz[87] @ 1392
     342 00000258 0000C22E          .bits   49710,16                        ; _TabSinus1Hz[88] @ 1408
     343 00000258 C1ACC22E          .bits   49580,16                        ; _TabSinus1Hz[89] @ 1424
     344 0000025c 0000C13B          .bits   49467,16                        ; _TabSinus1Hz[90] @ 1440
     345 0000025c C0DBC13B          .bits   49371,16                        ; _TabSinus1Hz[91] @ 1456
     346 00000260 0000C08C          .bits   49292,16                        ; _TabSinus1Hz[92] @ 1472
     347 00000260 C04FC08C          .bits   49231,16                        ; _TabSinus1Hz[93] @ 1488
     348 00000264 0000C023          .bits   49187,16                        ; _TabSinus1Hz[94] @ 1504
     349 00000264 C009C023          .bits   49161,16                        ; _TabSinus1Hz[95] @ 1520
     350 00000268 0000C000          .bits   49152,16                        ; _TabSinus1Hz[96] @ 1536
     351 00000268 C009C000          .bits   49161,16                        ; _TabSinus1Hz[97] @ 1552
     352 0000026c 0000C023          .bits   49187,16                        ; _TabSinus1Hz[98] @ 1568
     353 0000026c C04FC023          .bits   49231,16                        ; _TabSinus1Hz[99] @ 1584
     354 00000270 0000C08C          .bits   49292,16                        ; _TabSinus1Hz[100] @ 1600
     355 00000270 C0DBC08C          .bits   49371,16                        ; _TabSinus1Hz[101] @ 1616
     356 00000274 0000C13B          .bits   49467,16                        ; _TabSinus1Hz[102] @ 1632
     357 00000274 C1ACC13B          .bits   49580,16                        ; _TabSinus1Hz[103] @ 1648
     358 00000278 0000C22E          .bits   49710,16                        ; _TabSinus1Hz[104] @ 1664
     359 00000278 C2C1C22E          .bits   49857,16                        ; _TabSinus1Hz[105] @ 1680
     360 0000027c 0000C365          .bits   50021,16                        ; _TabSinus1Hz[106] @ 1696
     361 0000027c C41AC365          .bits   50202,16                        ; _TabSinus1Hz[107] @ 1712
     362 00000280 0000C4DF          .bits   50399,16                        ; _TabSinus1Hz[108] @ 1728
     363 00000280 C5B4C4DF          .bits   50612,16                        ; _TabSinus1Hz[109] @ 1744
     364 00000284 0000C69A          .bits   50842,16                        ; _TabSinus1Hz[110] @ 1760
     365 00000284 C78FC69A          .bits   51087,16                        ; _TabSinus1Hz[111] @ 1776
     366 00000288 0000C893          .bits   51347,16                        ; _TabSinus1Hz[112] @ 1792
     367 00000288 C9A7C893          .bits   51623,16                        ; _TabSinus1Hz[113] @ 1808
     368 0000028c 0000CAC9          .bits   51913,16                        ; _TabSinus1Hz[114] @ 1824
     369 0000028c CBFACAC9          .bits   52218,16                        ; _TabSinus1Hz[115] @ 1840
     370 00000290 0000CD3A          .bits   52538,16                        ; _TabSinus1Hz[116] @ 1856
     371 00000290 CE87CD3A          .bits   52871,16                        ; _TabSinus1Hz[117] @ 1872
     372 00000294 0000CFE2          .bits   53218,16                        ; _TabSinus1Hz[118] @ 1888
     373 00000294 D14ACFE2          .bits   53578,16                        ; _TabSinus1Hz[119] @ 1904
     374 00000298 0000D2BF          .bits   53951,16                        ; _TabSinus1Hz[120] @ 1920
     375 00000298 D440D2BF          .bits   54336,16                        ; _TabSinus1Hz[121] @ 1936
     376 0000029c 0000D5CD          .bits   54733,16                        ; _TabSinus1Hz[122] @ 1952
     377 0000029c D766D5CD          .bits   55142,16                        ; _TabSinus1Hz[123] @ 1968
     378 000002a0 0000D90A          .bits   55562,16                        ; _TabSinus1Hz[124] @ 1984
     379 000002a0 DAB9D90A          .bits   55993,16                        ; _TabSinus1Hz[125] @ 2000
     380 000002a4 0000DC72          .bits   56434,16                        ; _TabSinus1Hz[126] @ 2016
     381 000002a4 DE34DC72          .bits   56884,16                        ; _TabSinus1Hz[127] @ 2032
     382 000002a8 0000E000          .bits   57344,16                        ; _TabSinus1Hz[128] @ 2048
     383 000002a8 E1D5E000          .bits   57813,16                        ; _TabSinus1Hz[129] @ 2064
     384 000002ac 0000E3B2          .bits   58290,16                        ; _TabSinus1Hz[130] @ 2080
     385 000002ac E596E3B2          .bits   58774,16                        ; _TabSinus1Hz[131] @ 2096
TMS320C6x Assembler PC v7.4.18 Mon Oct 30 12:06:01 2023

Tools Copyright (c) 1996-2015 Texas Instruments Incorporated
C:\Users\Lenovo\AppData\Local\Temp\1693210                           PAGE    8

     386 000002b0 0000E782          .bits   59266,16                        ; _TabSinus1Hz[132] @ 2112
     387 000002b0 E975E782          .bits   59765,16                        ; _TabSinus1Hz[133] @ 2128
     388 000002b4 0000EB6E          .bits   60270,16                        ; _TabSinus1Hz[134] @ 2144
     389 000002b4 ED6CEB6E          .bits   60780,16                        ; _TabSinus1Hz[135] @ 2160
     390 000002b8 0000EF70          .bits   61296,16                        ; _TabSinus1Hz[136] @ 2176
     391 000002b8 F178EF70          .bits   61816,16                        ; _TabSinus1Hz[137] @ 2192
     392 000002bc 0000F384          .bits   62340,16                        ; _TabSinus1Hz[138] @ 2208
     393 000002bc F593F384          .bits   62867,16                        ; _TabSinus1Hz[139] @ 2224
     394 000002c0 0000F7A5          .bits   63397,16                        ; _TabSinus1Hz[140] @ 2240
     395 000002c0 F9BAF7A5          .bits   63930,16                        ; _TabSinus1Hz[141] @ 2256
     396 000002c4 0000FBD0          .bits   64464,16                        ; _TabSinus1Hz[142] @ 2272
     397 000002c4 FDE8FBD0          .bits   65000,16                        ; _TabSinus1Hz[143] @ 2288
     398 000002c8 00000000          .bits   0,16                    ; _TabSinus1Hz[144] @ 2304
     399 000002c8 02180000          .bits   536,16                  ; _TabSinus1Hz[145] @ 2320
     400 000002cc 00000430          .bits   1072,16                 ; _TabSinus1Hz[146] @ 2336
     401 000002cc 06460430          .bits   1606,16                 ; _TabSinus1Hz[147] @ 2352
     402 000002d0 0000085B          .bits   2139,16                 ; _TabSinus1Hz[148] @ 2368
     403 000002d0 0A6D085B          .bits   2669,16                 ; _TabSinus1Hz[149] @ 2384
     404 000002d4 00000C7C          .bits   3196,16                 ; _TabSinus1Hz[150] @ 2400
     405 000002d4 0E880C7C          .bits   3720,16                 ; _TabSinus1Hz[151] @ 2416
     406 000002d8 00001090          .bits   4240,16                 ; _TabSinus1Hz[152] @ 2432
     407 000002d8 12941090          .bits   4756,16                 ; _TabSinus1Hz[153] @ 2448
     408 000002dc 00001492          .bits   5266,16                 ; _TabSinus1Hz[154] @ 2464
     409 000002dc 168B1492          .bits   5771,16                 ; _TabSinus1Hz[155] @ 2480
     410 000002e0 0000187E          .bits   6270,16                 ; _TabSinus1Hz[156] @ 2496
     411 000002e0 1A6A187E          .bits   6762,16                 ; _TabSinus1Hz[157] @ 2512
     412 000002e4 00001C4E          .bits   7246,16                 ; _TabSinus1Hz[158] @ 2528
     413 000002e4 1E2B1C4E          .bits   7723,16                 ; _TabSinus1Hz[159] @ 2544
     414 000002e8 00002000          .bits   8192,16                 ; _TabSinus1Hz[160] @ 2560
     415 000002e8 21CC2000          .bits   8652,16                 ; _TabSinus1Hz[161] @ 2576
     416 000002ec 0000238E          .bits   9102,16                 ; _TabSinus1Hz[162] @ 2592
     417 000002ec 2547238E          .bits   9543,16                 ; _TabSinus1Hz[163] @ 2608
     418 000002f0 000026F6          .bits   9974,16                 ; _TabSinus1Hz[164] @ 2624
     419 000002f0 289A26F6          .bits   10394,16                        ; _TabSinus1Hz[165] @ 2640
     420 000002f4 00002A33          .bits   10803,16                        ; _TabSinus1Hz[166] @ 2656
     421 000002f4 2BC02A33          .bits   11200,16                        ; _TabSinus1Hz[167] @ 2672
     422 000002f8 00002D41          .bits   11585,16                        ; _TabSinus1Hz[168] @ 2688
     423 000002f8 2EB62D41          .bits   11958,16                        ; _TabSinus1Hz[169] @ 2704
     424 000002fc 0000301E          .bits   12318,16                        ; _TabSinus1Hz[170] @ 2720
     425 000002fc 3179301E          .bits   12665,16                        ; _TabSinus1Hz[171] @ 2736
     426 00000300 000032C6          .bits   12998,16                        ; _TabSinus1Hz[172] @ 2752
     427 00000300 340632C6          .bits   13318,16                        ; _TabSinus1Hz[173] @ 2768
     428 00000304 00003537          .bits   13623,16                        ; _TabSinus1Hz[174] @ 2784
     429 00000304 36593537          .bits   13913,16                        ; _TabSinus1Hz[175] @ 2800
     430 00000308 0000376D          .bits   14189,16                        ; _TabSinus1Hz[176] @ 2816
     431 00000308 3871376D          .bits   14449,16                        ; _TabSinus1Hz[177] @ 2832
     432 0000030c 00003966          .bits   14694,16                        ; _TabSinus1Hz[178] @ 2848
     433 0000030c 3A4C3966          .bits   14924,16                        ; _TabSinus1Hz[179] @ 2864
     434 00000310 00003B21          .bits   15137,16                        ; _TabSinus1Hz[180] @ 2880
     435 00000310 3BE63B21          .bits   15334,16                        ; _TabSinus1Hz[181] @ 2896
     436 00000314 00003C9B          .bits   15515,16                        ; _TabSinus1Hz[182] @ 2912
     437 00000314 3D3F3C9B          .bits   15679,16                        ; _TabSinus1Hz[183] @ 2928
     438 00000318 00003DD2          .bits   15826,16                        ; _TabSinus1Hz[184] @ 2944
     439 00000318 3E543DD2          .bits   15956,16                        ; _TabSinus1Hz[185] @ 2960
     440 0000031c 00003EC5          .bits   16069,16                        ; _TabSinus1Hz[186] @ 2976
TMS320C6x Assembler PC v7.4.18 Mon Oct 30 12:06:01 2023

Tools Copyright (c) 1996-2015 Texas Instruments Incorporated
C:\Users\Lenovo\AppData\Local\Temp\1693210                           PAGE    9

     441 0000031c 3F253EC5          .bits   16165,16                        ; _TabSinus1Hz[187] @ 2992
     442 00000320 00003F74          .bits   16244,16                        ; _TabSinus1Hz[188] @ 3008
     443 00000320 3FB13F74          .bits   16305,16                        ; _TabSinus1Hz[189] @ 3024
     444 00000324 00003FDD          .bits   16349,16                        ; _TabSinus1Hz[190] @ 3040
     445 00000324 3FF73FDD          .bits   16375,16                        ; _TabSinus1Hz[191] @ 3056
     446          00000180  $C$IR_3:        .set    384
     447                    
     448 00000328                   .sect   ".cinit"
     449                            .align  8
     450 00000328 00000004          .field          4,32
     451 0000032c 00000310-         .field          _fs+0,32
     452 00000330 00000007          .bits   7,32                    ; _fs @ 0
     453                    
     454 00000334                   .sect   ".cinit"
     455                            .align  8
     456 00000338 00000004          .field          4,32
     457 0000033c 00000364-         .field          _ModuleMax+0,32
     458 00000340 00000000          .bits   0,32                    ; _ModuleMax @ 0
     459                    
     460 00000344                   .sect   ".cinit"
     461                            .align  8
     462 00000348 00000004          .field          4,32
     463 0000034c 00000368-         .field          _ModuleMaxSuivant+0,32
     464 00000350 00000000          .bits   0,32                    ; _ModuleMaxSuivant @ 0
     465                    
     466 00000354                   .sect   ".cinit"
     467                            .align  8
     468 00000358 00000002          .field          2,32
     469 0000035c 00000502-         .field          _cpt5sec+0,32
     470 00000360 00000000          .bits   0,16                    ; _cpt5sec @ 0
     471                    
     472                    
     473                    $C$DW$1 .dwtag  DW_TAG_subprogram, DW_AT_name("output_left_sample")
     474                            .dwattr $C$DW$1, DW_AT_TI_symbol_name("_output_left_sample")
     475                            .dwattr $C$DW$1, DW_AT_declaration
     476                            .dwattr $C$DW$1, DW_AT_external
     477                    $C$DW$2 .dwtag  DW_TAG_formal_parameter
     478                            .dwattr $C$DW$2, DW_AT_type(*$C$DW$T$10)
     479                            .dwendtag $C$DW$1
     480                    
     481                    
     482                    $C$DW$3 .dwtag  DW_TAG_subprogram, DW_AT_name("comm_intr")
     483                            .dwattr $C$DW$3, DW_AT_TI_symbol_name("_comm_intr")
     484                            .dwattr $C$DW$3, DW_AT_declaration
     485                            .dwattr $C$DW$3, DW_AT_external
     486                            .global _XnBufferExcel
     487 00000000           _XnBufferExcel: .usect  ".far",384,4
     488                    $C$DW$4 .dwtag  DW_TAG_variable, DW_AT_name("XnBufferExcel")
     489                            .dwattr $C$DW$4, DW_AT_TI_symbol_name("_XnBufferExcel")
     490                            .dwattr $C$DW$4, DW_AT_location[DW_OP_addr _XnBufferExcel]
     491                            .dwattr $C$DW$4, DW_AT_type(*$C$DW$T$23)
     492                            .dwattr $C$DW$4, DW_AT_external
     493                            .global _Coeff
     494 00000180           _Coeff: .usect  ".far",16,4
     495                    $C$DW$5 .dwtag  DW_TAG_variable, DW_AT_name("Coeff")
TMS320C6x Assembler PC v7.4.18 Mon Oct 30 12:06:01 2023

Tools Copyright (c) 1996-2015 Texas Instruments Incorporated
C:\Users\Lenovo\AppData\Local\Temp\1693210                           PAGE   10

     496                            .dwattr $C$DW$5, DW_AT_TI_symbol_name("_Coeff")
     497                            .dwattr $C$DW$5, DW_AT_location[DW_OP_addr _Coeff]
     498                            .dwattr $C$DW$5, DW_AT_type(*$C$DW$T$24)
     499                            .dwattr $C$DW$5, DW_AT_external
     500                            .global _TabSinus1Hz
     501 00000190           _TabSinus1Hz:   .usect  ".far",384,4
     502                    $C$DW$6 .dwtag  DW_TAG_variable, DW_AT_name("TabSinus1Hz")
     503                            .dwattr $C$DW$6, DW_AT_TI_symbol_name("_TabSinus1Hz")
     504                            .dwattr $C$DW$6, DW_AT_location[DW_OP_addr _TabSinus1Hz]
     505                            .dwattr $C$DW$6, DW_AT_type(*$C$DW$T$23)
     506                            .dwattr $C$DW$6, DW_AT_external
     507                            .global _fs
     508 00000310           _fs:    .usect  ".far",4,4
     509                    $C$DW$7 .dwtag  DW_TAG_variable, DW_AT_name("fs")
     510                            .dwattr $C$DW$7, DW_AT_TI_symbol_name("_fs")
     511                            .dwattr $C$DW$7, DW_AT_location[DW_OP_addr _fs]
     512                            .dwattr $C$DW$7, DW_AT_type(*$C$DW$T$31)
     513                            .dwattr $C$DW$7, DW_AT_external
     514                            .global _Qn
     515 00000314           _Qn:    .usect  ".far",16,4
     516                    $C$DW$8 .dwtag  DW_TAG_variable, DW_AT_name("Qn")
     517                            .dwattr $C$DW$8, DW_AT_TI_symbol_name("_Qn")
     518                            .dwattr $C$DW$8, DW_AT_location[DW_OP_addr _Qn]
     519                            .dwattr $C$DW$8, DW_AT_type(*$C$DW$T$24)
     520                            .dwattr $C$DW$8, DW_AT_external
     521                            .global _Qn_1
     522 00000324           _Qn_1:  .usect  ".far",16,4
     523                    $C$DW$9 .dwtag  DW_TAG_variable, DW_AT_name("Qn_1")
     524                            .dwattr $C$DW$9, DW_AT_TI_symbol_name("_Qn_1")
     525                            .dwattr $C$DW$9, DW_AT_location[DW_OP_addr _Qn_1]
     526                            .dwattr $C$DW$9, DW_AT_type(*$C$DW$T$24)
     527                            .dwattr $C$DW$9, DW_AT_external
     528                            .global _Qn_2
     529 00000334           _Qn_2:  .usect  ".far",16,4
     530                    $C$DW$10        .dwtag  DW_TAG_variable, DW_AT_name("Qn_2")
     531                            .dwattr $C$DW$10, DW_AT_TI_symbol_name("_Qn_2")
     532                            .dwattr $C$DW$10, DW_AT_location[DW_OP_addr _Qn_2]
     533                            .dwattr $C$DW$10, DW_AT_type(*$C$DW$T$24)
     534                            .dwattr $C$DW$10, DW_AT_external
     535                            .global _Module
     536 00000344           _Module:        .usect  ".far",32,4
     537                    $C$DW$11        .dwtag  DW_TAG_variable, DW_AT_name("Module")
     538                            .dwattr $C$DW$11, DW_AT_TI_symbol_name("_Module")
     539                            .dwattr $C$DW$11, DW_AT_location[DW_OP_addr _Module]
     540                            .dwattr $C$DW$11, DW_AT_type(*$C$DW$T$32)
     541                            .dwattr $C$DW$11, DW_AT_external
     542                            .global _ModuleMax
     543 00000364           _ModuleMax:     .usect  ".far",4,4
     544                    $C$DW$12        .dwtag  DW_TAG_variable, DW_AT_name("ModuleMax")
     545                            .dwattr $C$DW$12, DW_AT_TI_symbol_name("_ModuleMax")
     546                            .dwattr $C$DW$12, DW_AT_location[DW_OP_addr _ModuleMax]
     547                            .dwattr $C$DW$12, DW_AT_type(*$C$DW$T$31)
     548                            .dwattr $C$DW$12, DW_AT_external
     549                            .global _ModuleMaxSuivant
     550 00000368           _ModuleMaxSuivant:      .usect  ".far",4,4
TMS320C6x Assembler PC v7.4.18 Mon Oct 30 12:06:01 2023

Tools Copyright (c) 1996-2015 Texas Instruments Incorporated
C:\Users\Lenovo\AppData\Local\Temp\1693210                           PAGE   11

     551                    $C$DW$13        .dwtag  DW_TAG_variable, DW_AT_name("ModuleMaxSuivant")
     552                            .dwattr $C$DW$13, DW_AT_TI_symbol_name("_ModuleMaxSuivant")
     553                            .dwattr $C$DW$13, DW_AT_location[DW_OP_addr _ModuleMaxSuivant]
     554                            .dwattr $C$DW$13, DW_AT_type(*$C$DW$T$31)
     555                            .dwattr $C$DW$13, DW_AT_external
     556                            .global _n
     557 0000036c           _n:     .usect  ".far",4,4
     558                    $C$DW$14        .dwtag  DW_TAG_variable, DW_AT_name("n")
     559                            .dwattr $C$DW$14, DW_AT_TI_symbol_name("_n")
     560                            .dwattr $C$DW$14, DW_AT_location[DW_OP_addr _n]
     561                            .dwattr $C$DW$14, DW_AT_type(*$C$DW$T$31)
     562                            .dwattr $C$DW$14, DW_AT_external
     563                            .global _Xn
     564 00000370           _Xn:    .usect  ".far",2,2
     565                    $C$DW$15        .dwtag  DW_TAG_variable, DW_AT_name("Xn")
     566                            .dwattr $C$DW$15, DW_AT_TI_symbol_name("_Xn")
     567                            .dwattr $C$DW$15, DW_AT_location[DW_OP_addr _Xn]
     568                            .dwattr $C$DW$15, DW_AT_type(*$C$DW$T$8)
     569                            .dwattr $C$DW$15, DW_AT_external
     570                            .global _XnBuffer
     571 00000374           _XnBuffer:      .usect  ".far",384,4
     572                    $C$DW$16        .dwtag  DW_TAG_variable, DW_AT_name("XnBuffer")
     573                            .dwattr $C$DW$16, DW_AT_TI_symbol_name("_XnBuffer")
     574                            .dwattr $C$DW$16, DW_AT_location[DW_OP_addr _XnBuffer]
     575                            .dwattr $C$DW$16, DW_AT_type(*$C$DW$T$23)
     576                            .dwattr $C$DW$16, DW_AT_external
     577                            .global _i
     578 000004f4           _i:     .usect  ".far",2,2
     579                    $C$DW$17        .dwtag  DW_TAG_variable, DW_AT_name("i")
     580                            .dwattr $C$DW$17, DW_AT_TI_symbol_name("_i")
     581                            .dwattr $C$DW$17, DW_AT_location[DW_OP_addr _i]
     582                            .dwattr $C$DW$17, DW_AT_type(*$C$DW$T$26)
     583                            .dwattr $C$DW$17, DW_AT_external
     584                            .global _j
     585 000004f6           _j:     .usect  ".far",2,2
     586                    $C$DW$18        .dwtag  DW_TAG_variable, DW_AT_name("j")
     587                            .dwattr $C$DW$18, DW_AT_TI_symbol_name("_j")
     588                            .dwattr $C$DW$18, DW_AT_location[DW_OP_addr _j]
     589                            .dwattr $C$DW$18, DW_AT_type(*$C$DW$T$26)
     590                            .dwattr $C$DW$18, DW_AT_external
     591                            .global _f
     592 000004f8           _f:     .usect  ".far",2,2
     593                    $C$DW$19        .dwtag  DW_TAG_variable, DW_AT_name("f")
     594                            .dwattr $C$DW$19, DW_AT_TI_symbol_name("_f")
     595                            .dwattr $C$DW$19, DW_AT_location[DW_OP_addr _f]
     596                            .dwattr $C$DW$19, DW_AT_type(*$C$DW$T$26)
     597                            .dwattr $C$DW$19, DW_AT_external
     598                            .global _fmax
     599 000004fa           _fmax:  .usect  ".far",2,2
     600                    $C$DW$20        .dwtag  DW_TAG_variable, DW_AT_name("fmax")
     601                            .dwattr $C$DW$20, DW_AT_TI_symbol_name("_fmax")
     602                            .dwattr $C$DW$20, DW_AT_location[DW_OP_addr _fmax]
     603                            .dwattr $C$DW$20, DW_AT_type(*$C$DW$T$26)
     604                            .dwattr $C$DW$20, DW_AT_external
     605                            .global _Canal_Libre
TMS320C6x Assembler PC v7.4.18 Mon Oct 30 12:06:01 2023

Tools Copyright (c) 1996-2015 Texas Instruments Incorporated
C:\Users\Lenovo\AppData\Local\Temp\1693210                           PAGE   12

     606 000004fc           _Canal_Libre:   .usect  ".far",2,2
     607                    $C$DW$21        .dwtag  DW_TAG_variable, DW_AT_name("Canal_Libre")
     608                            .dwattr $C$DW$21, DW_AT_TI_symbol_name("_Canal_Libre")
     609                            .dwattr $C$DW$21, DW_AT_location[DW_OP_addr _Canal_Libre]
     610                            .dwattr $C$DW$21, DW_AT_type(*$C$DW$T$26)
     611                            .dwattr $C$DW$21, DW_AT_external
     612                            .global _Canal_Trouve
     613 000004fe           _Canal_Trouve:  .usect  ".far",2,2
     614                    $C$DW$22        .dwtag  DW_TAG_variable, DW_AT_name("Canal_Trouve")
     615                            .dwattr $C$DW$22, DW_AT_TI_symbol_name("_Canal_Trouve")
     616                            .dwattr $C$DW$22, DW_AT_location[DW_OP_addr _Canal_Trouve]
     617                            .dwattr $C$DW$22, DW_AT_type(*$C$DW$T$26)
     618                            .dwattr $C$DW$22, DW_AT_external
     619                            .global _STEP
     620 00000500           _STEP:  .usect  ".far",2,2
     621                    $C$DW$23        .dwtag  DW_TAG_variable, DW_AT_name("STEP")
     622                            .dwattr $C$DW$23, DW_AT_TI_symbol_name("_STEP")
     623                            .dwattr $C$DW$23, DW_AT_location[DW_OP_addr _STEP]
     624                            .dwattr $C$DW$23, DW_AT_type(*$C$DW$T$26)
     625                            .dwattr $C$DW$23, DW_AT_external
     626                            .global _cpt5sec
     627 00000502           _cpt5sec:       .usect  ".far",2,2
     628                    $C$DW$24        .dwtag  DW_TAG_variable, DW_AT_name("cpt5sec")
     629                            .dwattr $C$DW$24, DW_AT_TI_symbol_name("_cpt5sec")
     630                            .dwattr $C$DW$24, DW_AT_location[DW_OP_addr _cpt5sec]
     631                            .dwattr $C$DW$24, DW_AT_type(*$C$DW$T$26)
     632                            .dwattr $C$DW$24, DW_AT_external
     633                            .global _Tab_Detection
     634 00000504           _Tab_Detection: .usect  ".far",16,4
     635                    $C$DW$25        .dwtag  DW_TAG_variable, DW_AT_name("Tab_Detection")
     636                            .dwattr $C$DW$25, DW_AT_TI_symbol_name("_Tab_Detection")
     637                            .dwattr $C$DW$25, DW_AT_location[DW_OP_addr _Tab_Detection]
     638                            .dwattr $C$DW$25, DW_AT_type(*$C$DW$T$27)
     639                            .dwattr $C$DW$25, DW_AT_external
     640                            .global _tmp1
     641 00000514           _tmp1:  .usect  ".far",4,4
     642                    $C$DW$26        .dwtag  DW_TAG_variable, DW_AT_name("tmp1")
     643                            .dwattr $C$DW$26, DW_AT_TI_symbol_name("_tmp1")
     644                            .dwattr $C$DW$26, DW_AT_location[DW_OP_addr _tmp1]
     645                            .dwattr $C$DW$26, DW_AT_type(*$C$DW$T$10)
     646                            .dwattr $C$DW$26, DW_AT_external
     647                            .global _tmp2
     648 00000518           _tmp2:  .usect  ".far",2,2
     649                    $C$DW$27        .dwtag  DW_TAG_variable, DW_AT_name("tmp2")
     650                            .dwattr $C$DW$27, DW_AT_TI_symbol_name("_tmp2")
     651                            .dwattr $C$DW$27, DW_AT_location[DW_OP_addr _tmp2]
     652                            .dwattr $C$DW$27, DW_AT_type(*$C$DW$T$8)
     653                            .dwattr $C$DW$27, DW_AT_external
     654                    ;       D:\ti_v6_2\ccsv6\tools\compiler\c6000_7.4.18\bin\opt6x.exe C:\\Users\\Lenovo\\AppData\\Local\\
     655 00000000                   .sect   ".text"
     656                            .clink
     657                            .global _main
     658                    
     659                    $C$DW$28        .dwtag  DW_TAG_subprogram, DW_AT_name("main")
     660                            .dwattr $C$DW$28, DW_AT_low_pc(_main)
TMS320C6x Assembler PC v7.4.18 Mon Oct 30 12:06:01 2023

Tools Copyright (c) 1996-2015 Texas Instruments Incorporated
C:\Users\Lenovo\AppData\Local\Temp\1693210                           PAGE   13

     661                            .dwattr $C$DW$28, DW_AT_high_pc(0x00)
     662                            .dwattr $C$DW$28, DW_AT_TI_symbol_name("_main")
     663                            .dwattr $C$DW$28, DW_AT_external
     664                            .dwattr $C$DW$28, DW_AT_type(*$C$DW$T$10)
     665                            .dwattr $C$DW$28, DW_AT_TI_begin_file("../main.c")
     666                            .dwattr $C$DW$28, DW_AT_TI_begin_line(0x82)
     667                            .dwattr $C$DW$28, DW_AT_TI_begin_column(0x01)
     668                            .dwattr $C$DW$28, DW_AT_TI_max_frame_size(0x08)
     669                            .dwpsn  file "../main.c",line 131,column 1,is_stmt,address _main
     670                    
     671                            .dwfde $C$DW$CIE, _main
     672                    
     673                    ;******************************************************************************
     674                    ;* FUNCTION NAME: main                                                        *
     675                    ;*                                                                            *
     676                    ;*   Regs Modified     : A0,A1,A2,A3,A4,A5,A6,A7,A8,A9,B0,B1,B2,B3,B4,B5,B6,  *
     677                    ;*                           B7,B8,B9,SP                                      *
     678                    ;*   Regs Used         : A0,A1,A2,A3,A4,A5,A6,A7,A8,A9,B0,B1,B2,B3,B4,B5,B6,  *
     679                    ;*                           B7,B8,B9,DP,SP                                   *
     680                    ;*   Local Frame Size  : 0 Args + 0 Auto + 4 Save = 4 byte                    *
     681                    ;******************************************************************************
     682                    
     683                    ;******************************************************************************
     684                    ;*                                                                            *
     685                    ;* Using -g (debug) with optimization (-o2) may disable key optimizations!    *
     686                    ;*                                                                            *
     687                    ;******************************************************************************
     688 00000000           _main:
     689                    ;** --------------------------------------------------------------------------*
     690                            .dwcfi  cfa_offset, 0
     691                            .dwcfi  save_reg_to_reg, 228, 19
     692 00000000 01BC54F6             STW     .D2T2   B3,*SP--(8)       ; |131| 
     693                            .dwcfi  cfa_offset, 8
     694                            .dwcfi  save_reg_to_mem, 19, 0
     695                            .dwpsn  file "../main.c",line 132,column 2,is_stmt
     696 00000004 02827A2A-            MVKL    .S2     _i,B5
     697                    
     698 00000008 0280006B-            MVKH    .S2     _i,B5
     699 0000000c 020000FA  ||         ZERO    .L2     B4                ; |132| 
     700                    
     701 00000010 021402D6             STH     .D2T2   B4,*B5            ; |132| 
     702                            .dwpsn  file "../main.c",line 133,column 2,is_stmt
     703 00000014 02028128-            MVKL    .S1     _cpt5sec,A4
     704                    
     705 00000018 02000069-            MVKH    .S1     _cpt5sec,A4
     706 0000001c 018000F8  ||         ZERO    .L1     A3                ; |133| 
     707                    
     708 00000020 01900254             STH     .D1T1   A3,*A4            ; |133| 
     709                            .dwpsn  file "../main.c",line 134,column 2,is_stmt
     710 00000024 0281B22A-            MVKL    .S2     _ModuleMax,B5
     711 00000028 0280006A-            MVKH    .S2     _ModuleMax,B5
     712 0000002c 021402F6             STW     .D2T2   B4,*B5            ; |134| 
     713                            .dwpsn  file "../main.c",line 135,column 2,is_stmt
     714 00000030 0201B428-            MVKL    .S1     _ModuleMaxSuivant,A4
     715 00000034 02000068-            MVKH    .S1     _ModuleMaxSuivant,A4
TMS320C6x Assembler PC v7.4.18 Mon Oct 30 12:06:01 2023

Tools Copyright (c) 1996-2015 Texas Instruments Incorporated
C:\Users\Lenovo\AppData\Local\Temp\1693210                           PAGE   14

     716 00000038 01900274             STW     .D1T1   A3,*A4            ; |135| 
     717                            .dwpsn  file "../main.c",line 136,column 2,is_stmt
     718 0000003c 04027F2A-            MVKL    .S2     _Canal_Trouve,B8
     719                    
     720 00000040 0381922B-            MVKL    .S2     _Qn_1,B7
     721 00000044 03828228- ||         MVKL    .S1     _Tab_Detection,A7
     722                    
     723 00000048 0400006B-            MVKH    .S2     _Canal_Trouve,B8
     724 0000004c 03800068- ||         MVKH    .S1     _Tab_Detection,A7
     725                    
     726 00000050 01818A29-            MVKL    .S1     _Qn,A3
     727 00000054 0380006A- ||         MVKH    .S2     _Qn_1,B7
     728                    
     729 00000058 02019A29-            MVKL    .S1     _Qn_2,A4
     730 0000005c 0201A22A- ||         MVKL    .S2     _Module,B4
     731                    
     732 00000060 01800069-            MVKH    .S1     _Qn,A3
     733 00000064 0200006B- ||         MVKH    .S2     _Module,B4
     734 00000068 028000FA  ||         ZERO    .L2     B5                ; |136| 
     735                    
     736 00000080 020000FB             ZERO    .L2     B4
     737 00000084 02A002D7  ||         STH     .D2T2   B5,*B8            ; |136| 
     738 00000088 030C11A3  ||         MV      .S2X    A3,B6
     739 0000008c 03101059  ||         MV      .L1X    B4,A6
     740 00000090 02000069- ||         MVKH    .S1     _Qn_2,A4
     741 00000094 028008C0  ||         ZERO    .D1     A5
     742                    
     743                            .dwpsn  file "../main.c",line 138,column 6,is_stmt
     744                    
     745 000000a0 018000F9             ZERO    .L1     A3                ; |138| 
     746 000000a4 041011A1  ||         MV      .S1X    B4,A8
     747 000000a8 000000AA  ||         MVK     .S2     0x1,B0
     748                    
     749 000000ac 24106A55     [ B0]   STH     .D1T1   A8,*+A4[A3]       ; |139| (P) <0,0>  ^ 
     750 000000b0 221CAAD6  || [ B0]   STH     .D2T2   B4,*+B7[B5]       ; |139| (P) <0,0> 
     751                    
     752 000000b4 241C6A55     [ B0]   STH     .D1T1   A8,*+A7[A3]       ; |139| (P) <0,1>  ^ 
     753 000000b8 2218AAD7  || [ B0]   STH     .D2T2   B4,*+B6[B5]       ; |139| (P) <0,1> 
     754 000000bc 048C2058  ||         ADD     .L1     1,A3,A9           ; |138| (P) <0,0> 
     755                    
     756 000000c0 01A61009             EXTU    .S1     A9,16,16,A3       ; |138| (P) <0,2>  ^ 
     757 000000c4 02986A75  ||         STW     .D1T1   A5,*+A6[A3]       ; |139| (P) <0,2>  ^ 
     758 000000c8 040403E2  ||         MVC     .S2     CSR,B8
     759                    
     760 000000cc 008D08D9             CMPLT   .L1     A3,8,A1           ; |138| (P) <0,3>  ^ 
     761 000000d0 04A3CF5A  ||         AND     .L2     -2,B8,B9
     762                    
     763 000000d4 900008C3     [!A1]   ZERO    .D2     B0                ; |138| (P) <0,4>  ^ 
     764 000000d8 028C105B  ||         MV      .L2X    A3,B5             ; |138| (P) <0,4> Define a twin register
     765 000000dc 00A403A2  ||         MVC     .S2     B9,CSR            ; interrupts off
     766                    
     767                    ;*----------------------------------------------------------------------------*
     768                    ;*   SOFTWARE PIPELINE INFORMATION
     769                    ;*
     770                    ;*      Loop found in file               : ../main.c
TMS320C6x Assembler PC v7.4.18 Mon Oct 30 12:06:01 2023

Tools Copyright (c) 1996-2015 Texas Instruments Incorporated
C:\Users\Lenovo\AppData\Local\Temp\1693210                           PAGE   15

     771                    ;*      Loop source line                 : 138
     772                    ;*      Loop opening brace source line   : 138
     773                    ;*      Loop closing brace source line   : 140
     774                    ;*      Known Minimum Trip Count         : 1                    
     775                    ;*      Known Max Trip Count Factor      : 1
     776                    ;*      Loop Carried Dependency Bound(^) : 3
     777                    ;*      Unpartitioned Resource Bound     : 3
     778                    ;*      Partitioned Resource Bound(*)    : 3
     779                    ;*      Resource Partition:
     780                    ;*                                A-side   B-side
     781                    ;*      .L units                     1        0     
     782                    ;*      .S units                     1        1     
     783                    ;*      .D units                     3*       2     
     784                    ;*      .M units                     0        0     
     785                    ;*      .X cross paths               0        1     
     786                    ;*      .T address paths             3*       2     
     787                    ;*      Long read paths              3*       2     
     788                    ;*      Long write paths             0        0     
     789                    ;*      Logical  ops (.LS)           0        1     (.L or .S unit)
     790                    ;*      Addition ops (.LSD)          1        1     (.L or .S or .D unit)
     791                    ;*      Bound(.L .S .LS)             1        1     
     792                    ;*      Bound(.L .S .D .LS .LSD)     2        2     
     793                    ;*
     794                    ;*      Searching for software pipeline schedule at ...
     795                    ;*         ii = 3  Did not find schedule
     796                    ;*         ii = 4  Did not find schedule
     797                    ;*         ii = 5  Schedule found with 3 iterations in parallel
     798                    ;*      Done
     799                    ;*
     800                    ;*      Collapsed epilog stages       : 2
     801                    ;*      Prolog not removed
     802                    ;*      Collapsed prolog stages       : 0
     803                    ;*
     804                    ;*      Minimum required memory pad   : 0 bytes
     805                    ;*
     806                    ;*      Minimum safe trip count       : 1
     807                    ;*----------------------------------------------------------------------------*
     808 000000e0           $C$L1:    ; PIPED LOOP PROLOG
     809                    
     810 000000e0 20000213     [ B0]   B       .S2     $C$L2             ; |138| (P) <0,5> 
     811 000000e4 221CAAD7  || [ B0]   STH     .D2T2   B4,*+B7[B5]       ; |139| (P) <1,0> 
     812 000000e8 048C2059  ||         ADD     .L1     1,A3,A9           ; |138| (P) <1,0> 
     813 000000ec 24106A54  || [ B0]   STH     .D1T1   A8,*+A4[A3]       ; |139| (P) <1,0>  ^ 
     814                    
     815                    ;** --------------------------------------------------------------------------*
     816 000000f0           $C$L2:    ; PIPED LOOP KERNEL
     817 000000f0           $C$DW$L$_main$3$B:
     818                    
     819 000000f0 2218AAD7     [ B0]   STH     .D2T2   B4,*+B6[B5]       ; |139| <1,1> 
     820 000000f4 241C6A54  || [ B0]   STH     .D1T1   A8,*+A7[A3]       ; |139| <1,1>  ^ 
     821                    
     822 000000f8 01A61009             EXTU    .S1     A9,16,16,A3       ; |138| <1,2>  ^ 
     823 000000fc 22986A74  || [ B0]   STW     .D1T1   A5,*+A6[A3]       ; |139| <1,2>  ^ 
     824                    
     825 00000100 008D08D8             CMPLT   .L1     A3,8,A1           ; |138| <1,3>  ^ 
TMS320C6x Assembler PC v7.4.18 Mon Oct 30 12:06:01 2023

Tools Copyright (c) 1996-2015 Texas Instruments Incorporated
C:\Users\Lenovo\AppData\Local\Temp\1693210                           PAGE   16

     826                    
     827 00000104 028C105B             MV      .L2X    A3,B5             ; |138| <1,4> Define a twin register
     828 00000108 900005E2  || [!A1]   ZERO    .S2     B0                ; |138| <1,4>  ^ 
     829                    
     830 0000010c 2FFFFE13     [ B0]   B       .S2     $C$L2             ; |138| <1,5> 
     831 00000110 221CAAD7  || [ B0]   STH     .D2T2   B4,*+B7[B5]       ; |139| <2,0> 
     832 00000114 048C2059  ||         ADD     .L1     1,A3,A9           ; |138| <2,0> 
     833 00000118 24106A54  || [ B0]   STH     .D1T1   A8,*+A4[A3]       ; |139| <2,0>  ^ 
     834                    
     835 0000011c           $C$DW$L$_main$3$E:
     836                    ;** --------------------------------------------------------------------------*
     837 0000011c           $C$L3:    ; PIPED LOOP EPILOG
     838                    ;** --------------------------------------------------------------------------*
     839 0000011c 01827C28-            MVKL    .S1     _f,A3
     840                    
     841 00000120 01800069-            MVKH    .S1     _f,A3
     842 00000124 0200042A  ||         MVK     .S2     8,B4
     843                    
     844 00000128 020C0257             STH     .D1T2   B4,*A3
     845 0000012c 00A003A2  ||         MVC     .S2     B8,CSR            ; interrupts on
     846                    
     847                            .dwpsn  file "../main.c",line 142,column 2,is_stmt
     848                    $C$DW$29        .dwtag  DW_TAG_TI_branch
     849                            .dwattr $C$DW$29, DW_AT_low_pc(0x00)
     850                            .dwattr $C$DW$29, DW_AT_name("_comm_intr")
     851                            .dwattr $C$DW$29, DW_AT_TI_call
     852 00000130 0FFFDC10!            CALL    .S1     _comm_intr        ; |142| 
     853 00000134 0180A02A'            MVKL    .S2     $C$RL0,B3         ; |142| 
     854 00000138 0180006A'            MVKH    .S2     $C$RL0,B3         ; |142| 
     855 0000013c 00004000             NOP             3
     856 00000140           $C$RL0:    ; CALL OCCURS {_comm_intr} {0}    ; |142| 
     857                    ;*----------------------------------------------------------------------------*
     858                    ;*   SOFTWARE PIPELINE INFORMATION
     859                    ;*      Disqualified loop: Bad loop structure
     860                    ;*----------------------------------------------------------------------------*
     861 00000140           $C$L4:    
     862 00000140           $C$DW$L$_main$6$B:
     863                            .dwpsn  file "../main.c",line 143,column 8,is_stmt
     864 00000140 00000010             B       .S1     $C$L4             ; |143| 
     865 00000144 00008000             NOP             5
     866                               ; BRANCH OCCURS {$C$L4}           ; |143| 
     867 00000148           $C$DW$L$_main$6$E:
     868                    ;** --------------------------------------------------------------------------*
     869                            .dwcfi  cfa_offset, 0
     870                            .dwcfi  restore_reg, 19
     871                            .dwcfi  cfa_offset, 0
     872                    
     873                    $C$DW$30        .dwtag  DW_TAG_TI_loop
     874                            .dwattr $C$DW$30, DW_AT_name("C:\\Users\\Lenovo\\AppData\\Local\\Temp\\1693210:$C$L4:1:1698663
     875                            .dwattr $C$DW$30, DW_AT_TI_begin_file("../main.c")
     876                            .dwattr $C$DW$30, DW_AT_TI_begin_line(0x8f)
     877                            .dwattr $C$DW$30, DW_AT_TI_end_line(0x8f)
     878                    $C$DW$31        .dwtag  DW_TAG_TI_loop_range
     879                            .dwattr $C$DW$31, DW_AT_low_pc($C$DW$L$_main$6$B)
     880                            .dwattr $C$DW$31, DW_AT_high_pc($C$DW$L$_main$6$E)
TMS320C6x Assembler PC v7.4.18 Mon Oct 30 12:06:01 2023

Tools Copyright (c) 1996-2015 Texas Instruments Incorporated
C:\Users\Lenovo\AppData\Local\Temp\1693210                           PAGE   17

     881                            .dwendtag $C$DW$30
     882                    
     883                    
     884                    $C$DW$32        .dwtag  DW_TAG_TI_loop
     885                            .dwattr $C$DW$32, DW_AT_name("C:\\Users\\Lenovo\\AppData\\Local\\Temp\\1693210:$C$L2:1:1698663
     886                            .dwattr $C$DW$32, DW_AT_TI_begin_file("../main.c")
     887                            .dwattr $C$DW$32, DW_AT_TI_begin_line(0x8a)
     888                            .dwattr $C$DW$32, DW_AT_TI_end_line(0x8c)
     889                    $C$DW$33        .dwtag  DW_TAG_TI_loop_range
     890                            .dwattr $C$DW$33, DW_AT_low_pc($C$DW$L$_main$3$B)
     891                            .dwattr $C$DW$33, DW_AT_high_pc($C$DW$L$_main$3$E)
     892                            .dwendtag $C$DW$32
     893                    
     894                            .dwattr $C$DW$28, DW_AT_TI_end_file("../main.c")
     895                            .dwattr $C$DW$28, DW_AT_TI_end_line(0x90)
     896                            .dwattr $C$DW$28, DW_AT_TI_end_column(0x01)
     897                            .dwendentry
     898                            .dwendtag $C$DW$28
     899                    
     900 00000000                   .sect   ".text:retain"
     901                            .retain
     902                            .retainrefs
     903                            .global _c_int11
     904                    
     905                    $C$DW$34        .dwtag  DW_TAG_subprogram, DW_AT_name("c_int11")
     906                            .dwattr $C$DW$34, DW_AT_low_pc(_c_int11)
     907                            .dwattr $C$DW$34, DW_AT_high_pc(0x00)
     908                            .dwattr $C$DW$34, DW_AT_TI_symbol_name("_c_int11")
     909                            .dwattr $C$DW$34, DW_AT_external
     910                            .dwattr $C$DW$34, DW_AT_TI_begin_file("../main.c")
     911                            .dwattr $C$DW$34, DW_AT_TI_begin_line(0x35)
     912                            .dwattr $C$DW$34, DW_AT_TI_begin_column(0x10)
     913                            .dwattr $C$DW$34, DW_AT_TI_interrupt
     914                            .dwattr $C$DW$34, DW_AT_TI_max_frame_size(0x78)
     915                            .dwpsn  file "../main.c",line 54,column 1,is_stmt,address _c_int11
     916                    
     917                            .dwfde $C$DW$CIE, _c_int11
     918                    
     919                    ;******************************************************************************
     920                    ;* FUNCTION NAME: c_int11                                                     *
     921                    ;*                                                                            *
     922                    ;*   Regs Modified     : A0,A1,A2,A3,A4,A5,A6,A7,A8,A9,A10,A11,A12,A13,A14,B0,*
     923                    ;*                           B1,B2,B3,B4,B5,B6,B7,B8,B9,B10,B11,B12,B13,DP,SP *
     924                    ;*   Regs Used         : A0,A1,A2,A3,A4,A5,A6,A7,A8,A9,A10,A11,A12,A13,A14,B0,*
     925                    ;*                           B1,B2,B3,B4,B5,B6,B7,B8,B9,B10,B11,B12,B13,DP,SP *
     926                    ;*   Local Frame Size  : 0 Args + 0 Auto + 116 Save = 116 byte                *
     927                    ;******************************************************************************
     928                    
     929                    ;******************************************************************************
     930                    ;*                                                                            *
     931                    ;* Using -g (debug) with optimization (-o2) may disable key optimizations!    *
     932                    ;*                                                                            *
     933                    ;******************************************************************************
     934 00000000           _c_int11:
     935                    ;** --------------------------------------------------------------------------*
TMS320C6x Assembler PC v7.4.18 Mon Oct 30 12:06:01 2023

Tools Copyright (c) 1996-2015 Texas Instruments Incorporated
C:\Users\Lenovo\AppData\Local\Temp\1693210                           PAGE   18

     936                            .dwcfi  cfa_offset, 0
     937                            .dwcfi  save_reg_to_reg, 228, 19
     938 00000000 06BFD4F6             STW     .D2T2   B13,*SP--(120)    ; |54| 
     939                            .dwcfi  cfa_offset, 120
     940                            .dwcfi  save_reg_to_mem, 29, 0
     941 00000004 063FA2F6             STW     .D2T2   B12,*+SP(116)     ; |54| 
     942                            .dwcfi  save_reg_to_mem, 28, -4
     943 00000008 05BF82F6             STW     .D2T2   B11,*+SP(112)     ; |54| 
     944                            .dwcfi  save_reg_to_mem, 27, -8
     945 0000000c 053F62F6             STW     .D2T2   B10,*+SP(108)     ; |54| 
     946                            .dwcfi  save_reg_to_mem, 26, -12
     947 00000010 04BF42F6             STW     .D2T2   B9,*+SP(104)      ; |54| 
     948                            .dwcfi  save_reg_to_mem, 25, -16
     949 00000014 043F22F6             STW     .D2T2   B8,*+SP(100)      ; |54| 
     950                            .dwcfi  save_reg_to_mem, 24, -20
     951 00000018 03BF02F6             STW     .D2T2   B7,*+SP(96)       ; |54| 
     952                            .dwcfi  save_reg_to_mem, 23, -24
     953 0000001c 033EE2F6             STW     .D2T2   B6,*+SP(92)       ; |54| 
     954                            .dwcfi  save_reg_to_mem, 22, -28
     955 00000020 02BEC2F6             STW     .D2T2   B5,*+SP(88)       ; |54| 
     956                            .dwcfi  save_reg_to_mem, 21, -32
     957 00000024 023EA2F6             STW     .D2T2   B4,*+SP(84)       ; |54| 
     958                            .dwcfi  save_reg_to_mem, 20, -36
     959 00000028 01BE82F6             STW     .D2T2   B3,*+SP(80)       ; |54| 
     960                            .dwcfi  save_reg_to_mem, 19, -40
     961 0000002c 013E62F6             STW     .D2T2   B2,*+SP(76)       ; |54| 
     962                            .dwcfi  save_reg_to_mem, 18, -44
     963 00000030 00BE42F6             STW     .D2T2   B1,*+SP(72)       ; |54| 
     964                            .dwcfi  save_reg_to_mem, 17, -48
     965 00000034 003E22F6             STW     .D2T2   B0,*+SP(68)       ; |54| 
     966                            .dwcfi  save_reg_to_mem, 16, -52
     967 00000038 073E02F4             STW     .D2T1   A14,*+SP(64)      ; |54| 
     968                            .dwcfi  save_reg_to_mem, 14, -56
     969 0000003c 06BDE2F4             STW     .D2T1   A13,*+SP(60)      ; |54| 
     970                            .dwcfi  save_reg_to_mem, 13, -60
     971 00000040 063DC2F4             STW     .D2T1   A12,*+SP(56)      ; |54| 
     972                            .dwcfi  save_reg_to_mem, 12, -64
     973 00000044 05BDA2F4             STW     .D2T1   A11,*+SP(52)      ; |54| 
     974                            .dwcfi  save_reg_to_mem, 11, -68
     975 00000048 053D82F4             STW     .D2T1   A10,*+SP(48)      ; |54| 
     976                            .dwcfi  save_reg_to_mem, 10, -72
     977 0000004c 04BD62F4             STW     .D2T1   A9,*+SP(44)       ; |54| 
     978                            .dwcfi  save_reg_to_mem, 9, -76
     979 00000050 043D42F4             STW     .D2T1   A8,*+SP(40)       ; |54| 
     980                            .dwcfi  save_reg_to_mem, 8, -80
     981 00000054 03BD22F4             STW     .D2T1   A7,*+SP(36)       ; |54| 
     982                            .dwcfi  save_reg_to_mem, 7, -84
     983 00000058 033D02F4             STW     .D2T1   A6,*+SP(32)       ; |54| 
     984                            .dwcfi  save_reg_to_mem, 6, -88
     985 0000005c 02BCE2F4             STW     .D2T1   A5,*+SP(28)       ; |54| 
     986                            .dwcfi  save_reg_to_mem, 5, -92
     987 00000060 023CC2F4             STW     .D2T1   A4,*+SP(24)       ; |54| 
     988                            .dwcfi  save_reg_to_mem, 4, -96
     989 00000064 01BCA2F4             STW     .D2T1   A3,*+SP(20)       ; |54| 
     990                            .dwcfi  save_reg_to_mem, 3, -100
TMS320C6x Assembler PC v7.4.18 Mon Oct 30 12:06:01 2023

Tools Copyright (c) 1996-2015 Texas Instruments Incorporated
C:\Users\Lenovo\AppData\Local\Temp\1693210                           PAGE   19

     991 00000068 013C82F4             STW     .D2T1   A2,*+SP(16)       ; |54| 
     992                            .dwcfi  save_reg_to_mem, 2, -104
     993 0000006c 00BC62F4             STW     .D2T1   A1,*+SP(12)       ; |54| 
     994                            .dwcfi  save_reg_to_mem, 1, -108
     995 00000070 003C42F4             STW     .D2T1   A0,*+SP(8)        ; |54| 
     996                            .dwcfi  save_reg_to_mem, 0, -112
     997                            .dwpsn  file "../main.c",line 55,column 2,is_stmt
     998 00000074 01827F28-            MVKL    .S1     _Canal_Trouve,A3
     999 00000078 01800068-            MVKH    .S1     _Canal_Trouve,A3
    1000 0000007c 008C0204             LDHU    .D1T1   *A3,A1            ; |55| 
    1001 00000080 0501B62A-            MVKL    .S2     _n,B10
    1002 00000084 0500006A-            MVKH    .S2     _n,B10
    1003 00000088 022802E6             LDW     .D2T2   *B10,B4           ; |55| 
    1004 0000008c 00028128-            MVKL    .S1     _cpt5sec,A0
    1005 00000090 8000AF90     [ A1]   B       .S1     $C$L17            ; |55| 
    1006 00000094 00000068-            MVKH    .S1     _cpt5sec,A0
    1007 00000098 04800204             LDHU    .D1T1   *A0,A9            ; |55| 
    1008 0000009c 00004000             NOP             3
    1009                               ; BRANCHCC OCCURS {$C$L17}        ; |55| 
    1010                    ;** --------------------------------------------------------------------------*
    1011                            .dwpsn  file "../main.c",line 56,column 3,is_stmt
    1012                    
    1013 000000a0 0204E22B             MVK     .S2     2500,B4           ; |56| 
    1014 000000a4 04027A28- ||         MVKL    .S1     _i,A8
    1015                    
    1016 000000a8 002498FB             CMPLT   .L2X    A9,B4,B0          ; |56| 
    1017 000000ac 04000068- ||         MVKH    .S1     _i,A8
    1018                    
    1019 000000b0 20001D10     [ B0]   B       .S1     $C$L7             ; |56| 
    1020 000000b4 31828228-    [!B0]   MVKL    .S1     _Tab_Detection,A3
    1021 000000b8 03200204             LDHU    .D1T1   *A8,A6            ; |56| 
    1022 000000bc 31800068-    [!B0]   MVKH    .S1     _Tab_Detection,A3
    1023 000000c0 350012A8     [!B0]   MVK     .S1     0x25,A10
    1024 000000c4 358C0058     [!B0]   MV      .L1     A3,A11
    1025                               ; BRANCHCC OCCURS {$C$L7}         ; |56| 
    1026                    ;** --------------------------------------------------------------------------*
    1027                            .dwpsn  file "../main.c",line 100,column 8,is_stmt
    1028 000000c8 018000F8             ZERO    .L1     A3                ; |100| 
    1029                    ;*----------------------------------------------------------------------------*
    1030                    ;*   SOFTWARE PIPELINE INFORMATION
    1031                    ;*      Disqualified loop: Loop contains control code
    1032                    ;*----------------------------------------------------------------------------*
    1033 000000cc           $C$L5:    
    1034 000000cc           $C$DW$L$_c_int11$4$B:
    1035                            .dwpsn  file "../main.c",line 101,column 5,is_stmt
    1036 000000cc 00AC6A04             LDHU    .D1T1   *+A11[A3],A1      ; |101| 
    1037 000000d0 00006000             NOP             4
    1038 000000d4 80001410     [ A1]   B       .S1     $C$L6             ; |101| 
    1039 000000d8 92027C2A-    [!A1]   MVKL    .S2     _f,B4
    1040 000000dc 9200006A-    [!A1]   MVKH    .S2     _f,B4
    1041 000000e0 919002D4     [!A1]   STH     .D2T1   A3,*B4
    1042 000000e4 00002000             NOP             2
    1043                               ; BRANCHCC OCCURS {$C$L6}         ; |101| 
    1044 000000e8           $C$DW$L$_c_int11$4$E:
    1045                    ;** --------------------------------------------------------------------------*
TMS320C6x Assembler PC v7.4.18 Mon Oct 30 12:06:01 2023

Tools Copyright (c) 1996-2015 Texas Instruments Incorporated
C:\Users\Lenovo\AppData\Local\Temp\1693210                           PAGE   20

    1046 000000e8           $C$DW$L$_c_int11$5$B:
    1047                            .dwpsn  file "../main.c",line 102,column 6,is_stmt
    1048 000000e8 02027E28-            MVKL    .S1     _Canal_Libre,A4
    1049 000000ec 02000068-            MVKH    .S1     _Canal_Libre,A4
    1050 000000f0 01900254             STH     .D1T1   A3,*A4            ; |102| 
    1051                            .dwpsn  file "../main.c",line 103,column 6,is_stmt
    1052                    
    1053 000000f4 0202802B-            MVKL    .S2     _STEP,B4
    1054 000000f8 018D4078  ||         ADD     .L1     A10,A3,A3         ; |103| 
    1055                    
    1056 000000fc 0200006A-            MVKH    .S2     _STEP,B4
    1057 00000100 019002D4             STH     .D2T1   A3,*B4            ; |103| 
    1058                            .dwpsn  file "../main.c",line 104,column 6,is_stmt
    1059                    
    1060 00000104 01827F29-            MVKL    .S1     _Canal_Trouve,A3
    1061 00000108 020000AA  ||         MVK     .S2     1,B4              ; |104| 
    1062                    
    1063 0000010c 01800068-            MVKH    .S1     _Canal_Trouve,A3
    1064 00000110 020C0256             STH     .D1T2   B4,*A3            ; |104| 
    1065                            .dwpsn  file "../main.c",line 105,column 6,is_stmt
    1066                    
    1067 00000114 020000FB             ZERO    .L2     B4                ; |105| 
    1068 00000118 02A801A2  ||         MV      .S2     B10,B5
    1069                    
    1070 0000011c 021402F6             STW     .D2T2   B4,*B5            ; |105| 
    1071                            .dwpsn  file "../main.c",line 106,column 6,is_stmt
    1072                    
    1073 00000120 02027A29-            MVKL    .S1     _i,A4
    1074 00000124 018000F8  ||         ZERO    .L1     A3                ; |106| 
    1075                    
    1076 00000128 02000068-            MVKH    .S1     _i,A4
    1077 0000012c 01900254             STH     .D1T1   A3,*A4            ; |106| 
    1078                            .dwpsn  file "../main.c",line 107,column 6,is_stmt
    1079 00000130 02827B2A-            MVKL    .S2     _j,B5
    1080 00000134 0280006A-            MVKH    .S2     _j,B5
    1081 00000138 021402D6             STH     .D2T2   B4,*B5            ; |107| 
    1082                            .dwpsn  file "../main.c",line 108,column 6,is_stmt
    1083                    $C$DW$35        .dwtag  DW_TAG_TI_branch
    1084                            .dwattr $C$DW$35, DW_AT_low_pc(0x00)
    1085                            .dwattr $C$DW$35, DW_AT_name("_output_left_sample")
    1086                            .dwattr $C$DW$35, DW_AT_TI_call
    1087 0000013c 0FFFDC10!            CALL    .S1     _output_left_sample ; |108| 
    1088 00000140 020000F8             ZERO    .L1     A4                ; |108| 
    1089 00000144 0180A82A+            MVKL    .S2     $C$RL1,B3         ; |108| 
    1090 00000148 0180006A+            MVKH    .S2     $C$RL1,B3         ; |108| 
    1091 0000014c 00002000             NOP             2
    1092 00000150           $C$RL1:    ; CALL OCCURS {_output_left_sample} {0}  ; |108| 
    1093 00000150           $C$DW$L$_c_int11$5$E:
    1094                    ;** --------------------------------------------------------------------------*
    1095 00000150           $C$DW$L$_c_int11$6$B:
    1096 00000150 01827C28-            MVKL    .S1     _f,A3
    1097 00000154 01800068-            MVKH    .S1     _f,A3
    1098 00000158 018C0204             LDHU    .D1T1   *A3,A3            ; |108| 
    1099 0000015c 00006000             NOP             4
    1100 00000160           $C$DW$L$_c_int11$6$E:
TMS320C6x Assembler PC v7.4.18 Mon Oct 30 12:06:01 2023

Tools Copyright (c) 1996-2015 Texas Instruments Incorporated
C:\Users\Lenovo\AppData\Local\Temp\1693210                           PAGE   21

    1101                    ;** --------------------------------------------------------------------------*
    1102 00000160           $C$L6:    
    1103 00000160           $C$DW$L$_c_int11$7$B:
    1104                            .dwpsn  file "../main.c",line 100,column 22,is_stmt
    1105 00000160 018C2058             ADD     .L1     1,A3,A3           ; |100| 
    1106 00000164 018E1008             EXTU    .S1     A3,16,16,A3       ; |100| 
    1107 00000168 008D08D8             CMPLT   .L1     A3,8,A1           ; |100| 
    1108 0000016c 8FFFED90     [ A1]   B       .S1     $C$L5             ; |100| 
    1109 00000170 9000B890     [!A1]   B       .S1     $C$L20
    1110 00000174 92027C28-    [!A1]   MVKL    .S1     _f,A4
    1111 00000178 92000068-    [!A1]   MVKH    .S1     _f,A4
    1112 0000017c 91900254     [!A1]   STH     .D1T1   A3,*A4
    1113 00000180 00000000             NOP             1
    1114                               ; BRANCHCC OCCURS {$C$L5}         ; |100| 
    1115 00000184           $C$DW$L$_c_int11$7$E:
    1116                    ;** --------------------------------------------------------------------------*
    1117 00000184 00000000             NOP             1
    1118                               ; BRANCH OCCURS {$C$L20}  
    1119                    ;** --------------------------------------------------------------------------*
    1120 00000188           $C$L7:    
    1121                            .dwpsn  file "../main.c",line 57,column 4,is_stmt
    1122 00000188 01800028-            MVKL    .S1     _XnBufferExcel,A3
    1123 0000018c 01800068-            MVKH    .S1     _XnBufferExcel,A3
    1124 00000190 018CCA44             LDH     .D1T1   *+A3[A6],A3       ; |57| 
    1125 00000194 0201B82A-            MVKL    .S2     _Xn,B4
    1126 00000198 0200006A-            MVKH    .S2     _Xn,B4
    1127 0000019c 00002000             NOP             2
    1128 000001a0 019002D4             STH     .D2T1   A3,*B4            ; |57| 
    1129                            .dwpsn  file "../main.c",line 58,column 4,is_stmt
    1130                    
    1131 000001a4 0381BA29-            MVKL    .S1     _XnBuffer,A7
    1132 000001a8 0681922A- ||         MVKL    .S2     _Qn_1,B13
    1133                    
    1134 000001ac 02018A29-            MVKL    .S1     _Qn,A4
    1135 000001b0 0600C02A- ||         MVKL    .S2     _Coeff,B12
    1136                    
    1137 000001b4 02000069-            MVKH    .S1     _Qn,A4
    1138 000001b8 0600006A- ||         MVKH    .S2     _Coeff,B12
    1139                    
    1140 000001c0 03800069-            MVKH    .S1     _XnBuffer,A7
    1141 000001c4 0510105B  ||         MV      .L2X    A4,B10
    1142 000001c8 0680006A- ||         MVKH    .S2     _Qn_1,B13
    1143                    
    1144 000001cc 02819A29-            MVKL    .S1     _Qn_2,A5
    1145 000001d0 019CCA55  ||         STH     .D1T1   A3,*+A7[A6]       ; |58| 
    1146 000001d4 058D1CA2  ||         SHL     .S2X    A3,8,B11
    1147                    
    1148 000001d8 02800068-            MVKH    .S1     _Qn_2,A5
    1149                            .dwpsn  file "../main.c",line 60,column 8,is_stmt
    1150                    
    1151 000001e0 030403E3             MVC     .S2     CSR,B6
    1152 000001e4 010000A9  ||         MVK     .S1     0x1,A2
    1153 000001e8 040008C3  ||         ZERO    .D2     B8                ; |60| 
    1154 000001ec 038C105B  ||         MV      .L2X    A3,B7
    1155 000001f0 020000F8  ||         ZERO    .L1     A4                ; |60| 
TMS320C6x Assembler PC v7.4.18 Mon Oct 30 12:06:01 2023

Tools Copyright (c) 1996-2015 Texas Instruments Incorporated
C:\Users\Lenovo\AppData\Local\Temp\1693210                           PAGE   22

    1156                    
    1157 00000200 03981059             MV      .L1X    B6,A7
    1158 00000204 031BCF5B  ||         AND     .L2     -2,B6,B6
    1159 00000208 A1B10AC7  || [ A2]   LDH     .D2T2   *+B12[B8],B3      ; |62| (P) <0,0> 
    1160 0000020c 021411A3  ||         MV      .S2X    A5,B4
    1161 00000210 008000A8  ||         MVK     .S1     0x1,A1
    1162                    
    1163 00000214 009803A3             MVC     .S2     B6,CSR            ; interrupts off
    1164 00000218 04A0205B  ||         ADD     .L2     1,B8,B9           ; |60| (P) <0,1> 
    1165 0000021c 028008C2  ||         ZERO    .D2     B5                ; |60| 
    1166                    
    1167                    ;*----------------------------------------------------------------------------*
    1168                    ;*   SOFTWARE PIPELINE INFORMATION
    1169                    ;*
    1170                    ;*      Loop found in file               : ../main.c
    1171                    ;*      Loop source line                 : 60
    1172                    ;*      Loop opening brace source line   : 60
    1173                    ;*      Loop closing brace source line   : 67
    1174                    ;*      Known Minimum Trip Count         : 1                    
    1175                    ;*      Known Max Trip Count Factor      : 1
    1176                    ;*      Loop Carried Dependency Bound(^) : 11
    1177                    ;*      Unpartitioned Resource Bound     : 4
    1178                    ;*      Partitioned Resource Bound(*)    : 6
    1179                    ;*      Resource Partition:
    1180                    ;*                                A-side   B-side
    1181                    ;*      .L units                     0        1     
    1182                    ;*      .S units                     1        4     
    1183                    ;*      .D units                     1        5     
    1184                    ;*      .M units                     0        1     
    1185                    ;*      .X cross paths               2        0     
    1186                    ;*      .T address paths             1        5     
    1187                    ;*      Long read paths              1        2     
    1188                    ;*      Long write paths             0        0     
    1189                    ;*      Logical  ops (.LS)           2        0     (.L or .S unit)
    1190                    ;*      Addition ops (.LSD)          2        6     (.L or .S or .D unit)
    1191                    ;*      Bound(.L .S .LS)             2        3     
    1192                    ;*      Bound(.L .S .D .LS .LSD)     2        6*    
    1193                    ;*
    1194                    ;*      Searching for software pipeline schedule at ...
    1195                    ;*         ii = 11 Did not find schedule
    1196                    ;*         ii = 12 Schedule found with 2 iterations in parallel
    1197                    ;*      Done
    1198                    ;*
    1199                    ;*      Collapsed epilog stages       : 1
    1200                    ;*      Prolog not removed
    1201                    ;*      Collapsed prolog stages       : 0
    1202                    ;*
    1203                    ;*      Minimum required memory pad   : 0 bytes
    1204                    ;*
    1205                    ;*      Minimum safe trip count       : 1
    1206                    ;*----------------------------------------------------------------------------*
    1207 00000220           $C$L8:    ; PIPED LOOP PROLOG
    1208                    ;** --------------------------------------------------------------------------*
    1209 00000220           $C$L9:    ; PIPED LOOP KERNEL
    1210 00000220           $C$DW$L$_c_int11$11$B:
TMS320C6x Assembler PC v7.4.18 Mon Oct 30 12:06:01 2023

Tools Copyright (c) 1996-2015 Texas Instruments Incorporated
C:\Users\Lenovo\AppData\Local\Temp\1693210                           PAGE   23

    1211 00000220 A3B50AC6     [ A2]   LDH     .D2T2   *+B13[B8],B7      ; |62| <0,3>  ^ 
    1212 00000224 A1110AC6     [ A2]   LDH     .D2T2   *+B4[B8],B2       ; |62| <0,4> 
    1213 00000228 00000000             NOP             1
    1214 0000022c 0426100A             EXTU    .S2     B9,16,16,B8       ; |60| <0,6> 
    1215                    
    1216 00000230 032001A3             MV      .S2     B8,B6             ; |60| <0,7> Split a long life(pre-sched)
    1217 00000234 002108DA  ||         CMPLT   .L2     B8,8,B0           ; |60| <0,7> 
    1218                    
    1219 00000240 019C1059             MV      .L1X    B7,A3             ; |62| <0,8> Define a twin register
    1220 00000244 310005E1  || [!B0]   ZERO    .S1     A2                ; |60| <0,8> 
    1221 00000248 001C6C82  ||         MPY     .M2     B3,B7,B0          ; |62| <0,8>  ^ 
    1222                    
    1223 0000024c 02201059             MV      .L1X    B8,A4             ; |60| <0,9> Define a twin register
    1224 00000250 81948A55  || [ A1]   STH     .D1T1   A3,*+A5[A4]       ; |65| <0,9> 
    1225 00000254 0489ECA3  ||         SHL     .S2     B2,15,B9          ; |62| <0,9> 
    1226 00000258 AFFFFC10  || [ A2]   B       .S1     $C$L9             ; |60| <0,9> 
    1227                    
    1228 0000025c 0001607A             ADD     .L2     B11,B0,B0         ; |62| <0,10>  ^ 
    1229 00000260 002400FA             SUB     .L2     B0,B9,B0          ; |62| <0,11>  ^ 
    1230                    
    1231 00000264 8080005B     [ A1]   MV      .L2     B0,B1             ; |60| <0,12> 
    1232 00000268 0481EDA3  ||         SHR     .S2     B0,15,B9          ; |63| <0,12> 
    1233 0000026c A1B10AC6  || [ A2]   LDH     .D2T2   *+B12[B8],B3      ; |62| <1,0> 
    1234                    
    1235 00000270 84A8AAD7     [ A1]   STH     .D2T2   B9,*+B10[B5]      ; |63| <0,13> 
    1236 00000274 0000304B  ||         EXT     .S2     B0,1,16,B0        ; |63| <0,13>  ^ 
    1237 00000278 04A0205A  ||         ADD     .L2     1,B8,B9           ; |60| <1,1> 
    1238                    
    1239 00000280 00880059             MV      .L1     A2,A1             ; |60| <0,14> Split a long life(pre-sched)
    1240 00000284 0298005B  ||         MV      .L2     B6,B5             ; |60| <0,14> Split a long life(pre-sched)
    1241 00000288 8034AAD6  || [ A1]   STH     .D2T2   B0,*+B13[B5]      ; |66| <0,14>  ^ 
    1242                    
    1243 0000028c           $C$DW$L$_c_int11$11$E:
    1244                    ;** --------------------------------------------------------------------------*
    1245 0000028c           $C$L10:    ; PIPED LOOP EPILOG
    1246                    ;** --------------------------------------------------------------------------*
    1247 0000028c 021C105A             MV      .L2X    A7,B4
    1248 00000290 009003A2             MVC     .S2     B4,CSR            ; interrupts on
    1249                            .dwpsn  file "../main.c",line 69,column 4,is_stmt
    1250                    
    1251 00000294 01982059             ADD     .L1     1,A6,A3           ; |69| 
    1252 00000298 039555A8  ||         MVK     .S1     10923,A7          ; |69| 
    1253                    
    1254 0000029c 018CCDA0             SHR     .S1     A3,6,A3           ; |69| 
    1255 000002a0 019C6C80             MPY     .M1     A3,A7,A3          ; |69| 
    1256 000002a4 0200602A             MVK     .S2     192,B4            ; |69| 
    1257 000002a8 018DEDA0             SHR     .S1     A3,15,A3          ; |69| 
    1258 000002ac 01907C80             MPY     .M1X    A3,B4,A3          ; |69| 
    1259 000002b0 00000000             NOP             1
    1260 000002b4 018CC0F8             SUB     .L1     A6,A3,A3          ; |69| 
    1261 000002b8 008C2058             ADD     .L1     1,A3,A1           ; |69| 
    1262 000002bc 00A00254             STH     .D1T1   A1,*A8            ; |69| 
    1263                            .dwpsn  file "../main.c",line 70,column 4,is_stmt
    1264                    
    1265 000002c0 80006013     [ A1]   B       .S2     $C$L16            ; |70| 
TMS320C6x Assembler PC v7.4.18 Mon Oct 30 12:06:01 2023

Tools Copyright (c) 1996-2015 Texas Instruments Incorporated
C:\Users\Lenovo\AppData\Local\Temp\1693210                           PAGE   24

    1266 000002c4 01800428  ||         MVK     .S1     8,A3
    1267                    
    1268 000002c8 82027C2A-    [ A1]   MVKL    .S2     _f,B4
    1269 000002cc 8200006A-    [ A1]   MVKH    .S2     _f,B4
    1270                    
    1271 000002d0 819002D5     [ A1]   STH     .D2T1   A3,*B4
    1272 000002d4 82028A2A- || [ A1]   MVKL    .S2     _tmp1,B4
    1273                    
    1274 000002d8 8200006A-    [ A1]   MVKH    .S2     _tmp1,B4
    1275 000002dc 809002F6     [ A1]   STW     .D2T2   B1,*B4
    1276                               ; BRANCHCC OCCURS {$C$L16}        ; |70| 
    1277                    ;** --------------------------------------------------------------------------*
    1278                            .dwpsn  file "../main.c",line 71,column 5,is_stmt
    1279                    
    1280 000002e0 01827D29-            MVKL    .S1     _fmax,A3
    1281 000002e4 0201B22A- ||         MVKL    .S2     _ModuleMax,B4
    1282                    
    1283 000002e8 01800069-            MVKH    .S1     _fmax,A3
    1284 000002ec 0200006A- ||         MVKH    .S2     _ModuleMax,B4
    1285                    
    1286 000002f0 050C0205             LDHU    .D1T1   *A3,A10
    1287 000002f4 01A42059  ||         ADD     .L1     1,A9,A3           ; |71| 
    1288 000002f8 0481A22B- ||         MVKL    .S2     _Module,B9
    1289 000002fc 009002E6  ||         LDW     .D2T2   *B4,B1
    1290                    
    1291 00000300 01800255             STH     .D1T1   A3,*A0            ; |71| 
    1292 00000304 0480006A- ||         MVKH    .S2     _Module,B9
    1293                    
    1294                            .dwpsn  file "../main.c",line 72,column 9,is_stmt
    1295                    
    1296 00000308 04B41059             MV      .L1X    B13,A9
    1297 0000030c 001401A1  ||         MV      .S1     A5,A0
    1298 00000310 030008C1  ||         ZERO    .D1     A6                ; |72| 
    1299 00000314 021803E2  ||         MVC     .S2     IRP,B4            ; save irp
    1300                    
    1301 00000320 04301059             MV      .L1X    B12,A8
    1302 00000324 0424CA47  ||         LDH     .D1T2   *+A9[A6],B8       ; |74| (P) <0,3> 
    1303 00000328 010000AB  ||         MVK     .S2     0x1,B2
    1304 0000032c 018005E0  ||         ZERO    .S1     A3                ; |72| 
    1305                    
    1306 00000330 0220CA45             LDH     .D1T1   *+A8[A6],A4       ; |76| (P) <0,2> 
    1307 00000334 03A41059  ||         MV      .L1X    B9,A7
    1308 00000338 000000AA  ||         MVK     .S2     0x1,B0
    1309                    
    1310 00000340 0280CA45             LDH     .D1T1   *+A0[A6],A5       ; |74| (P) <0,4> 
    1311 00000344 04A8105B  ||         MV      .L2X    A10,B9
    1312 00000348 05182059  ||         ADD     .L1     1,A6,A10          ; |72| (P) <0,0> 
    1313 0000034c 069011A1  ||         MV      .S1X    B4,A13
    1314 00000350 020403E3  ||         MVC     .S2     CSR,B4
    1315 00000354 06040942  ||         MV      .D2     B1,B12
    1316                    
    1317 00000360 032A1009             EXTU    .S1     A10,16,16,A6      ; |72| (P) <0,4> 
    1318 00000364 06101059  ||         MV      .L1X    B4,A12
    1319 00000368 0213CF5A  ||         AND     .L2     -2,B4,B4
    1320                    
TMS320C6x Assembler PC v7.4.18 Mon Oct 30 12:06:01 2023

Tools Copyright (c) 1996-2015 Texas Instruments Incorporated
C:\Users\Lenovo\AppData\Local\Temp\1693210                           PAGE   25

    1321 0000036c 009908D9             CMPLT   .L1     A6,8,A1           ; |72| (P) <0,5> 
    1322 00000370 009003A3  ||         MVC     .S2     B4,CSR            ; interrupts off
    1323 00000374 073811A1  ||         MV      .S1X    DP,A14            ; save dp
    1324 00000378 05182940  ||         ADD     .D1     1,A6,A10          ; |72| (P) <1,0> 
    1325                    
    1326 00000380 910000FB     [!A1]   ZERO    .L2     B2                ; |72| (P) <0,8> 
    1327 00000384 02210C83  ||         MPY     .M2     B8,B8,B4          ; |74| (P) <0,9> 
    1328 00000388 01180059  ||         MV      .L1     A6,A2             ; |72| (P) <0,10> Split a long life(pre-sched)
    1329 0000038c 033C03A2  ||         MVC     .S2     SP,IRP            ; save sp
    1330                    
    1331 00000390 07111C83             MPY     .M2X    B8,A4,DP          ; |76| (P) <0,8>  ^ 
    1332 00000394 6220CA45  || [ B2]   LDH     .D1T1   *+A8[A6],A4       ; |76| (P) <1,2> 
    1333 00000398 0688005A  ||         MV      .L2     B2,B13            ; |72| (P) <0,13> Split a long life(pre-sched)
    1334                    
    1335 000003a0 0594AC81             MPY     .M1     A5,A5,A11         ; |74| (P) <0,9> 
    1336 000003a4 6424CA47  || [ B2]   LDH     .D1T2   *+A9[A6],B8       ; |74| (P) <1,3> 
    1337 000003a8 00940058  ||         MV      .L1     A5,A1             ; |74| (P) <0,9> Split a long life(pre-sched)
    1338                    
    1339 000003ac 6280CA45     [ B2]   LDH     .D1T1   *+A0[A6],A5       ; |74| (P) <1,4> 
    1340 000003b0 032A1009  ||         EXTU    .S1     A10,16,16,A6      ; |72| (P) <1,4> 
    1341 000003b4 02B8304A  ||         EXT     .S2     DP,1,16,B5        ; |76| (P) <0,12> 
    1342                    
    1343 000003b8 05117079             ADD     .L1X    A11,B4,A10        ; |74| (P) <0,11> 
    1344 000003bc 0239EDA2  ||         SHR     .S2     DP,15,B4          ; |76| (P) <0,11>  ^ 
    1345                    
    1346 000003c0 02049C82             MPY     .M2X    A1,B4,B4          ; |77| (P) <0,12>  ^ 
    1347 000003c4 009908D8             CMPLT   .L1     A6,8,A1           ; |72| (P) <1,5> 
    1348                    ;*----------------------------------------------------------------------------*
    1349                    ;*   SOFTWARE PIPELINE INFORMATION
    1350                    ;*
    1351                    ;*      Loop found in file               : ../main.c
    1352                    ;*      Loop source line                 : 72
    1353                    ;*      Loop opening brace source line   : 72
    1354                    ;*      Loop closing brace source line   : 84
    1355                    ;*      Known Minimum Trip Count         : 1                    
    1356                    ;*      Known Max Trip Count Factor      : 1
    1357                    ;*      Loop Carried Dependency Bound(^) : 5
    1358                    ;*      Unpartitioned Resource Bound     : 6
    1359                    ;*      Partitioned Resource Bound(*)    : 7
    1360                    ;*      Resource Partition:
    1361                    ;*                                A-side   B-side
    1362                    ;*      .L units                     1        2     
    1363                    ;*      .S units                     2        4     
    1364                    ;*      .D units                     5        1     
    1365                    ;*      .M units                     1        3     
    1366                    ;*      .X cross paths               1        4     
    1367                    ;*      .T address paths             3        3     
    1368                    ;*      Long read paths              1        2     
    1369                    ;*      Long write paths             0        0     
    1370                    ;*      Logical  ops (.LS)           1        1     (.L or .S unit)
    1371                    ;*      Addition ops (.LSD)          4       12     (.L or .S or .D unit)
    1372                    ;*      Bound(.L .S .LS)             2        4     
    1373                    ;*      Bound(.L .S .D .LS .LSD)     5        7*    
    1374                    ;*
    1375                    ;*      Searching for software pipeline schedule at ...
TMS320C6x Assembler PC v7.4.18 Mon Oct 30 12:06:01 2023

Tools Copyright (c) 1996-2015 Texas Instruments Incorporated
C:\Users\Lenovo\AppData\Local\Temp\1693210                           PAGE   26

    1376                    ;*         ii = 7  Schedule found with 3 iterations in parallel
    1377                    ;*      Done
    1378                    ;*
    1379                    ;*      Collapsed epilog stages       : 2
    1380                    ;*      Prolog not removed
    1381                    ;*      Collapsed prolog stages       : 0
    1382                    ;*
    1383                    ;*      Minimum required memory pad   : 0 bytes
    1384                    ;*
    1385                    ;*      Minimum safe trip count       : 1
    1386                    ;*----------------------------------------------------------------------------*
    1387 000003c8           $C$L11:    ; PIPED LOOP PROLOG
    1388                    ;** --------------------------------------------------------------------------*
    1389 000003c8           $C$L12:    ; PIPED LOOP KERNEL
    1390 000003c8           $C$DW$L$_c_int11$16$B:
    1391                    
    1392 000003c8 231001A3     [ B0]   MV      .S2     B4,B6             ; |72| <0,14> 
    1393 000003cc 25140943  || [ B0]   MV      .D2     B5,B10            ; |72| <0,14> 
    1394 000003d0 251C6A75  || [ B0]   STW     .D1T1   A10,*+A7[A3]      ; |74| <0,14> 
    1395 000003d4 021152FB  ||         SUB     .L2X    A10,B4,B4         ; |78| <0,14>  ^ 
    1396 000003d8 05182058  ||         ADD     .L1     1,A6,A10          ; |72| <2,0> 
    1397                    
    1398 000003e0 221C6A77     [ B0]   STW     .D1T2   B4,*+A7[A3]       ; |78| <0,15> 
    1399 000003e4 6FFFFD11  || [ B2]   B       .S1     $C$L12            ; |72| <0,15> 
    1400 000003e8 008489FB  ||         CMPGTU  .L2     B4,B1,B1          ; |80| <0,15> 
    1401 000003ec 910005E3  || [!A1]   ZERO    .S2     B2                ; |72| <1,8> 
    1402 000003f0 07111C82  ||         MPY     .M2X    B8,A4,DP          ; |76| <1,8>  ^ 
    1403                    
    1404 00000400 46100943     [ B1]   MV      .D2     B4,B12            ; |81| <0,16> 
    1405 00000404 45827D2B- || [ B1]   MVKL    .S2     _fmax,B11         ; <0,16> 
    1406 00000408 448C105B  || [ B1]   MV      .L2X    A3,B9             ; |82| <0,16> 
    1407 0000040c 02210C83  ||         MPY     .M2     B8,B8,B4          ; |74| <1,9> 
    1408 00000410 00940059  ||         MV      .L1     A5,A1             ; |74| <1,9> Split a long life(pre-sched)
    1409 00000414 0594AC81  ||         MPY     .M1     A5,A5,A11         ; |74| <1,9> 
    1410 00000418 6220CA44  || [ B2]   LDH     .D1T1   *+A8[A6],A4       ; |76| <2,2> 
    1411                    
    1412 00000420 01880059             MV      .L1     A2,A3             ; |72| <0,17> Split a long life(pre-sched)
    1413 00000424 02A4005B  ||         MV      .L2     B9,B5             ; |82| <0,17> Split a long life(pre-sched)
    1414 00000428 4580006B- || [ B1]   MVKH    .S2     _fmax,B11         ; <0,17> 
    1415 0000042c 21A40943  || [ B0]   MV      .D2     B9,B3             ; |72| <0,17> 
    1416 00000430 011801A1  ||         MV      .S1     A6,A2             ; |72| <1,10> Split a long life(pre-sched)
    1417 00000434 6424CA46  || [ B2]   LDH     .D1T2   *+A9[A6],B8       ; |74| <2,3> 
    1418                    
    1419 00000440 308000FB     [!B0]   ZERO    .L2     B1                ; <0,18> 
    1420 00000444 07B00943  ||         MV      .D2     B12,SP            ; |81| <0,18> Split a long life(pre-sched)
    1421 00000448 05117079  ||         ADD     .L1X    A11,B4,A10        ; |74| <1,11> 
    1422 0000044c 0239EDA3  ||         SHR     .S2     DP,15,B4          ; |76| <1,11>  ^ 
    1423 00000450 6280CA45  || [ B2]   LDH     .D1T1   *+A0[A6],A5       ; |74| <2,4> 
    1424 00000454 032A1008  ||         EXTU    .S1     A10,16,16,A6      ; |72| <2,4> 
    1425                    
    1426 00000460 00BC005B             MV      .L2     SP,B1             ; |81| <0,19> Split a long life(pre-sched)
    1427 00000464 42AC02D7  || [ B1]   STH     .D2T2   B5,*B11           ; |82| <0,19> 
    1428 00000468 02B8304B  ||         EXT     .S2     DP,1,16,B5        ; |76| <1,12> 
    1429 0000046c 02049C83  ||         MPY     .M2X    A1,B4,B4          ; |77| <1,12>  ^ 
    1430 00000470 009908D8  ||         CMPLT   .L1     A6,8,A1           ; |72| <2,5> 
TMS320C6x Assembler PC v7.4.18 Mon Oct 30 12:06:01 2023

Tools Copyright (c) 1996-2015 Texas Instruments Incorporated
C:\Users\Lenovo\AppData\Local\Temp\1693210                           PAGE   27

    1431                    
    1432 00000474 0034005B             MV      .L2     B13,B0            ; |72| <0,20> Split a long life(pre-sched)
    1433 00000478 23B001A3  || [ B0]   MV      .S2     B12,B7            ; |72| <0,20> 
    1434 0000047c 06880942  ||         MV      .D2     B2,B13            ; |72| <1,13> Split a long life(pre-sched)
    1435                    
    1436 00000480           $C$DW$L$_c_int11$16$E:
    1437                    ;*----------------------------------------------------------------------------*
    1438                    ;*   SOFTWARE PIPELINE INFORMATION
    1439                    ;*
    1440                    ;*      Loop found in file               : ../main.c
    1441                    ;*      Loop source line                 : 86
    1442                    ;*      Loop opening brace source line   : 86
    1443                    ;*      Loop closing brace source line   : 91
    1444                    ;*      Known Minimum Trip Count         : 1                    
    1445                    ;*      Known Max Trip Count Factor      : 1
    1446                    ;*      Loop Carried Dependency Bound(^) : 7
    1447                    ;*      Unpartitioned Resource Bound     : 3
    1448                    ;*      Partitioned Resource Bound(*)    : 4
    1449                    ;*      Resource Partition:
    1450                    ;*                                A-side   B-side
    1451                    ;*      .L units                     2        1     
    1452                    ;*      .S units                     0        2     
    1453                    ;*      .D units                     2        2     
    1454                    ;*      .M units                     0        0     
    1455                    ;*      .X cross paths               2        1     
    1456                    ;*      .T address paths             2        2     
    1457                    ;*      Long read paths              1        1     
    1458                    ;*      Long write paths             0        0     
    1459                    ;*      Logical  ops (.LS)           2        1     (.L or .S unit)
    1460                    ;*      Addition ops (.LSD)          4        1     (.L or .S or .D unit)
    1461                    ;*      Bound(.L .S .LS)             2        2     
    1462                    ;*      Bound(.L .S .D .LS .LSD)     4*       3     
    1463                    ;*
    1464                    ;*      Searching for software pipeline schedule at ...
    1465                    ;*         ii = 7  Schedule found with 2 iterations in parallel
    1466                    ;*      Done
    1467                    ;*
    1468                    ;*      Collapsed epilog stages       : 1
    1469                    ;*      Prolog not removed
    1470                    ;*      Collapsed prolog stages       : 0
    1471                    ;*
    1472                    ;*      Minimum required memory pad   : 0 bytes
    1473                    ;*
    1474                    ;*      Minimum safe trip count       : 1
    1475                    ;*----------------------------------------------------------------------------*
    1476 00000480           $C$L13:    ; PIPED LOOP EPILOG AND PROLOG
    1477                    
    1478 00000480 01A81059             MV      .L1X    B10,A3
    1479 00000484 02028C29- ||         MVKL    .S1     _tmp2,A4
    1480 00000488 0230105B  ||         MV      .L2X    A12,B4
    1481 0000048c 079803E2  ||         MVC     .S2     IRP,SP            ; restore sp
    1482                    
    1483 00000490 050C1059             MV      .L1X    B3,A10
    1484 00000494 02000069- ||         MVKH    .S1     _tmp2,A4
    1485 00000498 033413A2  ||         MVC     .S2X    A13,IRP
TMS320C6x Assembler PC v7.4.18 Mon Oct 30 12:06:01 2023

Tools Copyright (c) 1996-2015 Texas Instruments Incorporated
C:\Users\Lenovo\AppData\Local\Temp\1693210                           PAGE   28

    1486                    
    1487 000004a0 02800059             MV      .L1     A0,A5
    1488 000004a4 01900255  ||         STH     .D1T1   A3,*A4
    1489 000004a8 0281B42B- ||         MVKL    .S2     _ModuleMaxSuivant,B5
    1490 000004ac 0738105A  ||         MV      .L2X    A14,DP            ; restore dp
    1491                    
    1492 000004b0 049C105B             MV      .L2X    A7,B9
    1493 000004b4 009003A2  ||         MVC     .S2     B4,CSR            ; interrupts on
    1494                    
    1495 000004b8 06A4105B             MV      .L2X    A9,B13
    1496 000004bc 02028A2A- ||         MVKL    .S2     _tmp1,B4
    1497                    
    1498 000004c0 0200006A-            MVKH    .S2     _tmp1,B4
    1499                    
    1500 000004c4 031002F7             STW     .D2T2   B6,*B4
    1501 000004c8 0280006A- ||         MVKH    .S2     _ModuleMaxSuivant,B5
    1502                    
    1503 000004cc 029402E6             LDW     .D2T2   *B5,B5
    1504                            .dwpsn  file "../main.c",line 86,column 9,is_stmt
    1505                    
    1506 000004e0 020000FB             ZERO    .L2     B4                ; |86| 
    1507 000004e4 048403E3  ||         MVC     .S2     CSR,B9
    1508 000004e8 03240943  ||         MV      .D2     B9,B6
    1509 000004ec 018005E1  ||         ZERO    .S1     A3                ; |86| 
    1510 000004f0 02A41059  ||         MV      .L1X    B9,A5
    1511 000004f4 03940940  ||         MV      .D1     A5,A7
    1512                    
    1513 00000500 03341059             MV      .L1X    B13,A6
    1514 00000504 0427CF5B  ||         AND     .L2     -2,B9,B8
    1515 00000508 048C21A1  ||         ADD     .S1     1,A3,A9           ; |86| (P) <0,4> 
    1516 0000050c 00146A64  ||         LDW     .D1T1   *+A5[A3],A0       ; |87| (P) <0,0> 
    1517                    
    1518 00000510 020000F9             ZERO    .L1     A4                ; |86| 
    1519 00000514 00A003A3  ||         MVC     .S2     B8,CSR            ; interrupts off
    1520 00000518 01A61008  ||         EXTU    .S1     A9,16,16,A3       ; |86| (P) <0,5> 
    1521                    
    1522 00000520 048C01A1             MV      .S1     A3,A9             ; |86| (P) <0,6> Split a long life(pre-sched)
    1523 00000524 008D09D8  ||         CMPLTU  .L1     A3,8,A1           ; |86| (P) <0,6> 
    1524                    
    1525 00000528 04141058             MV      .L1X    B5,A8
    1526 0000052c 00000000             NOP             1
    1527 00000530 0000FA7A             CMPEQ   .L2X    A0,B7,B0          ; |87| (P) <0,5> 
    1528                    ;** --------------------------------------------------------------------------*
    1529 00000534           $C$L14:    ; PIPED LOOP KERNEL
    1530 00000534           $C$DW$L$_c_int11$18$B:
    1531                    
    1532 00000534 210425E1     [ B0]   ZERO    .S1     A2                ; |87| <0,7> 
    1533 00000538 312009F9  || [!B0]   CMPGTU  .L1     A0,A8,A2          ; |87| <0,7>  ^ 
    1534 0000053c 80146A64  || [ A1]   LDW     .D1T1   *+A5[A3],A0       ; |87| <1,0> 
    1535                    
    1536 00000540 020C105B             MV      .L2X    A3,B4             ; |86| <0,8> Define a twin register
    1537 00000544 8FFFFE93  || [ A1]   B       .S2     $C$L14            ; |86| <0,8> 
    1538 00000548 A40000F9  || [ A2]   ZERO    .L1     A8                ; |89| <0,8> 
    1539 0000054c A2988AE6  || [ A2]   LDW     .D2T2   *+B6[B4],B5       ; |88| <0,8>  ^ 
    1540                    
TMS320C6x Assembler PC v7.4.18 Mon Oct 30 12:06:01 2023

Tools Copyright (c) 1996-2015 Texas Instruments Incorporated
C:\Users\Lenovo\AppData\Local\Temp\1693210                           PAGE   29

    1541 00000550 A41C8A54     [ A2]   STH     .D1T1   A8,*+A7[A4]       ; |89| <0,9> 
    1542                    
    1543 00000554 02240059             MV      .L1     A9,A4             ; |86| <0,10> Split a long life(pre-sched)
    1544 00000558 A4188A54  || [ A2]   STH     .D1T1   A8,*+A6[A4]       ; |89| <0,10> 
    1545                    
    1546 0000055c 048C2058             ADD     .L1     1,A3,A9           ; |86| <1,4> 
    1547                    
    1548 00000560 81A61009     [ A1]   EXTU    .S1     A9,16,16,A3       ; |86| <1,5> 
    1549 00000564 0000FA7A  ||         CMPEQ   .L2X    A0,B7,B0          ; |87| <1,5> 
    1550                    
    1551 00000568 041411A1             MV      .S1X    B5,A8             ; |88| <0,13>  ^ Define a twin register
    1552 0000056c 048C0941  ||         MV      .D1     A3,A9             ; |86| <1,6> Split a long life(pre-sched)
    1553 00000570 008D09D8  ||         CMPLTU  .L1     A3,8,A1           ; |86| <1,6> 
    1554                    
    1555 00000580           $C$DW$L$_c_int11$18$E:
    1556                    ;** --------------------------------------------------------------------------*
    1557 00000580           $C$L15:    ; PIPED LOOP EPILOG
    1558                    ;** --------------------------------------------------------------------------*
    1559                    
    1560 00000580 020C105B             MV      .L2X    A3,B4
    1561 00000584 01827C29- ||         MVKL    .S1     _f,A3
    1562 00000588 009C0943  ||         MV      .D2     B7,B1
    1563 0000058c 00A403A2  ||         MVC     .S2     B9,CSR            ; interrupts on
    1564                    
    1565 00000590 01800069-            MVKH    .S1     _f,A3
    1566 00000594 02A0105A  ||         MV      .L2X    A8,B5
    1567                    
    1568 00000598 030C105A             MV      .L2X    A3,B6
    1569 0000059c 021802D6             STH     .D2T2   B4,*B6
    1570                            .dwpsn  file "../main.c",line 93,column 5,is_stmt
    1571 000005a0 02146CA2             SHL     .S2     B5,3,B4           ; |93| 
    1572 000005a4 001029FA             CMPGTU  .L2     B1,B4,B0          ; |93| 
    1573                            .dwpsn  file "../main.c",line 93,column 52,is_stmt
    1574 000005a8 00000410             B       .S1     $C$L16            ; |93| 
    1575 000005ac 21828228-    [ B0]   MVKL    .S1     _Tab_Detection,A3
    1576 000005b0 220000AA     [ B0]   MVK     .S2     1,B4              ; |93| 
    1577 000005b4 21800068-    [ B0]   MVKH    .S1     _Tab_Detection,A3
    1578 000005b8 220D4A56     [ B0]   STH     .D1T2   B4,*+A3[A10]      ; |93| 
    1579 000005bc 00000000             NOP             1
    1580                               ; BRANCH OCCURS {$C$L16}          ; |93| 
    1581                    ;** --------------------------------------------------------------------------*
    1582 000005c0           $C$L16:    
    1583                            .dwpsn  file "../main.c",line 95,column 4,is_stmt
    1584                    
    1585 000005c0 0281B22B-            MVKL    .S2     _ModuleMax,B5
    1586 000005c4 020000FA  ||         ZERO    .L2     B4                ; |95| 
    1587                    
    1588 000005c8 0280006A-            MVKH    .S2     _ModuleMax,B5
    1589 000005cc 021402F6             STW     .D2T2   B4,*B5            ; |95| 
    1590                            .dwpsn  file "../main.c",line 96,column 4,is_stmt
    1591                    
    1592 000005d0 0201B429-            MVKL    .S1     _ModuleMaxSuivant,A4
    1593 000005d4 018000F8  ||         ZERO    .L1     A3                ; |96| 
    1594                    
    1595 000005d8 02000068-            MVKH    .S1     _ModuleMaxSuivant,A4
TMS320C6x Assembler PC v7.4.18 Mon Oct 30 12:06:01 2023

Tools Copyright (c) 1996-2015 Texas Instruments Incorporated
C:\Users\Lenovo\AppData\Local\Temp\1693210                           PAGE   30

    1596 000005dc 01900274             STW     .D1T1   A3,*A4            ; |96| 
    1597                            .dwpsn  file "../main.c",line 97,column 4,is_stmt
    1598                    $C$DW$36        .dwtag  DW_TAG_TI_branch
    1599                            .dwattr $C$DW$36, DW_AT_low_pc(0x00)
    1600                            .dwattr $C$DW$36, DW_AT_name("_output_left_sample")
    1601                            .dwattr $C$DW$36, DW_AT_TI_call
    1602 000005e0 0FFF4410!            CALL    .S1     _output_left_sample ; |97| 
    1603 000005e4 020000F8             ZERO    .L1     A4                ; |97| 
    1604 000005e8 0182FA2A+            MVKL    .S2     $C$RL2,B3         ; |97| 
    1605 000005ec 0180006A+            MVKH    .S2     $C$RL2,B3         ; |97| 
    1606 000005f0 00002000             NOP             2
    1607 000005f4           $C$RL2:    ; CALL OCCURS {_output_left_sample} {0}  ; |97| 
    1608                    ;** --------------------------------------------------------------------------*
    1609                            .dwpsn  file "../main.c",line 98,column 3,is_stmt
    1610 000005f4 00002890             B       .S1     $C$L20            ; |98| 
    1611 000005f8 00008000             NOP             5
    1612                               ; BRANCH OCCURS {$C$L20}          ; |98| 
    1613                    ;** --------------------------------------------------------------------------*
    1614 000005fc           $C$L17:    
    1615                            .dwpsn  file "../main.c",line 114,column 3,is_stmt
    1616 000005fc 0281E02A             MVK     .S2     960,B5            ; |114| 
    1617 00000600 00148BFA             CMPLTU  .L2     B4,B5,B0          ; |114| 
    1618 00000604 20000990     [ B0]   B       .S1     $C$L18            ; |114| 
    1619 00000608 00008000             NOP             5
    1620                               ; BRANCHCC OCCURS {$C$L18}        ; |114| 
    1621                    ;** --------------------------------------------------------------------------*
    1622                            .dwpsn  file "../main.c",line 121,column 4,is_stmt
    1623                    
    1624 0000060c 02827A2B-            MVKL    .S2     _i,B5
    1625 00000610 020000FA  ||         ZERO    .L2     B4                ; |121| 
    1626                    
    1627 00000614 0280006A-            MVKH    .S2     _i,B5
    1628 00000618 021402D6             STH     .D2T2   B4,*B5            ; |121| 
    1629                            .dwpsn  file "../main.c",line 122,column 4,is_stmt
    1630                    
    1631 00000620 02027B29-            MVKL    .S1     _j,A4
    1632 00000624 018000F8  ||         ZERO    .L1     A3                ; |122| 
    1633                    
    1634 00000628 02000068-            MVKH    .S1     _j,A4
    1635 0000062c 01900254             STH     .D1T1   A3,*A4            ; |122| 
    1636                            .dwpsn  file "../main.c",line 123,column 4,is_stmt
    1637                    $C$DW$37        .dwtag  DW_TAG_TI_branch
    1638                            .dwattr $C$DW$37, DW_AT_low_pc(0x00)
    1639                            .dwattr $C$DW$37, DW_AT_name("_output_left_sample")
    1640                            .dwattr $C$DW$37, DW_AT_TI_call
    1641 00000630 0FFF3C10!            CALL    .S1     _output_left_sample ; |123| 
    1642 00000634 020000F8             ZERO    .L1     A4                ; |123| 
    1643 00000638 0183222A+            MVKL    .S2     $C$RL3,B3         ; |123| 
    1644 0000063c 0180006A+            MVKH    .S2     $C$RL3,B3         ; |123| 
    1645 00000640 00002000             NOP             2
    1646 00000644           $C$RL3:    ; CALL OCCURS {_output_left_sample} {0}  ; |123| 
    1647                    ;** --------------------------------------------------------------------------*
    1648 00000644 00001790             B       .S1     $C$L19            ; |123| 
    1649 00000648 00008000             NOP             5
    1650                               ; BRANCH OCCURS {$C$L19}          ; |123| 
TMS320C6x Assembler PC v7.4.18 Mon Oct 30 12:06:01 2023

Tools Copyright (c) 1996-2015 Texas Instruments Incorporated
C:\Users\Lenovo\AppData\Local\Temp\1693210                           PAGE   31

    1651                    ;** --------------------------------------------------------------------------*
    1652 0000064c           $C$L18:    
    1653                            .dwpsn  file "../main.c",line 115,column 4,is_stmt
    1654 0000064c 05027B28-            MVKL    .S1     _j,A10
    1655 00000650 05000068-            MVKH    .S1     _j,A10
    1656 00000654 01A80204             LDHU    .D1T1   *A10,A3           ; |115| 
    1657 00000658 0200C828-            MVKL    .S1     _TabSinus1Hz,A4
    1658 0000065c 02000068-            MVKH    .S1     _TabSinus1Hz,A4
    1659 00000660 0201B82A-            MVKL    .S2     _Xn,B4
    1660 00000664 0200006A-            MVKH    .S2     _Xn,B4
    1661 00000668 02106A44             LDH     .D1T1   *+A4[A3],A4       ; |115| 
    1662 0000066c 00006000             NOP             4
    1663 00000670 021002D4             STH     .D2T1   A4,*B4            ; |115| 
    1664                            .dwpsn  file "../main.c",line 116,column 4,is_stmt
    1665                    $C$DW$38        .dwtag  DW_TAG_TI_branch
    1666                            .dwattr $C$DW$38, DW_AT_low_pc(0x00)
    1667                            .dwattr $C$DW$38, DW_AT_name("_output_left_sample")
    1668                            .dwattr $C$DW$38, DW_AT_TI_call
    1669 00000674 0FFF3410!            CALL    .S1     _output_left_sample ; |116| 
    1670 00000678 0183422A+            MVKL    .S2     $C$RL4,B3         ; |116| 
    1671 0000067c 0180006A+            MVKH    .S2     $C$RL4,B3         ; |116| 
    1672 00000680 00004000             NOP             3
    1673 00000684           $C$RL4:    ; CALL OCCURS {_output_left_sample} {0}  ; |116| 
    1674                    ;** --------------------------------------------------------------------------*
    1675                            .dwpsn  file "../main.c",line 117,column 4,is_stmt
    1676 00000684 01827A28-            MVKL    .S1     _i,A3
    1677 00000688 01800068-            MVKH    .S1     _i,A3
    1678 0000068c 020C0204             LDHU    .D1T1   *A3,A4            ; |117| 
    1679 00000690 021555AA             MVK     .S2     10923,B4          ; |117| 
    1680 00000694 0280602A             MVK     .S2     192,B5            ; |117| 
    1681 00000698 00002000             NOP             2
    1682 0000069c 02902058             ADD     .L1     1,A4,A5           ; |117| 
    1683 000006a0 0294CDA0             SHR     .S1     A5,6,A5           ; |117| 
    1684 000006a4 02149C82             MPY     .M2X    A5,B4,B4          ; |117| 
    1685 000006a8 00000000             NOP             1
    1686 000006ac 0211EDA2             SHR     .S2     B4,15,B4          ; |117| 
    1687 000006b0 02148C82             MPY     .M2     B4,B5,B4          ; |117| 
    1688 000006b4 00000000             NOP             1
    1689 000006b8 021090F8             SUB     .L1X    A4,B4,A4          ; |117| 
    1690 000006bc 02102058             ADD     .L1     1,A4,A4           ; |117| 
    1691 000006c0 020C0254             STH     .D1T1   A4,*A3            ; |117| 
    1692                            .dwpsn  file "../main.c",line 118,column 4,is_stmt
    1693 000006c4 0202802A-            MVKL    .S2     _STEP,B4
    1694 000006c8 0200006A-            MVKH    .S2     _STEP,B4
    1695 000006cc 02100286             LDHU    .D2T2   *B4,B4            ; |118| 
    1696 000006d0 01837A2A+            MVKL    .S2     $C$RL5,B3         ; |118| 
    1697 000006d4 0180006A+            MVKH    .S2     $C$RL5,B3         ; |118| 
    1698                    $C$DW$39        .dwtag  DW_TAG_TI_branch
    1699                            .dwattr $C$DW$39, DW_AT_low_pc(0x00)
    1700                            .dwattr $C$DW$39, DW_AT_name("__remi")
    1701                            .dwattr $C$DW$39, DW_AT_TI_call
    1702 000006d8 0FFF2810!            CALL    .S1     __remi            ; |118| 
    1703 000006dc 00000000             NOP             1
    1704 000006e0 01909780             MPYLHU  .M1X    B4,A4,A3          ; |118| 
    1705 000006e4 02109F82             MPYU    .M2X    B4,A4,B4          ; |118| 
TMS320C6x Assembler PC v7.4.18 Mon Oct 30 12:06:01 2023

Tools Copyright (c) 1996-2015 Texas Instruments Incorporated
C:\Users\Lenovo\AppData\Local\Temp\1693210                           PAGE   32

    1706 000006e8 018E0CA0             SHL     .S1     A3,16,A3          ; |118| 
    1707                    
    1708 000006ec 02107079             ADD     .L1X    B4,A3,A4          ; |118| 
    1709 000006f0 0200602A  ||         MVK     .S2     0xc0,B4           ; |118| 
    1710                    
    1711 000006f4           $C$RL5:    ; CALL OCCURS {__remi} {0}        ; |118| 
    1712                    ;** --------------------------------------------------------------------------*
    1713 000006f4 01A80058             MV      .L1     A10,A3            ; |118| 
    1714 000006f8 020C0254             STH     .D1T1   A4,*A3            ; |118| 
    1715                    ;** --------------------------------------------------------------------------*
    1716 000006fc           $C$L19:    
    1717                            .dwpsn  file "../main.c",line 125,column 3,is_stmt
    1718 000006fc 022802E6             LDW     .D2T2   *B10,B4           ; |125| 
    1719 00000700 0183902A+            MVKL    .S2     $C$RL6,B3         ; |125| 
    1720                    $C$DW$40        .dwtag  DW_TAG_TI_branch
    1721                            .dwattr $C$DW$40, DW_AT_low_pc(0x00)
    1722                            .dwattr $C$DW$40, DW_AT_name("__remu")
    1723                            .dwattr $C$DW$40, DW_AT_TI_call
    1724 00000704 0FFF2010!            CALL    .S1     __remu            ; |125| 
    1725 00000708 0180006A+            MVKH    .S2     $C$RL6,B3         ; |125| 
    1726 0000070c 00000000             NOP             1
    1727                    
    1728 00000710 02103059             ADD     .L1X    1,B4,A4           ; |125| 
    1729 00000714 023B802A  ||         MVKL    .S2     0x17700,B4
    1730                    
    1731 00000718 020000EA             MVKH    .S2     0x17700,B4
    1732 0000071c 00000000             NOP             1
    1733 00000720           $C$RL6:    ; CALL OCCURS {__remu} {0}        ; |125| 
    1734                    ;** --------------------------------------------------------------------------*
    1735 00000720 022802F4             STW     .D2T1   A4,*B10           ; |125| 
    1736                    ;** --------------------------------------------------------------------------*
    1737 00000724           $C$L20:    
    1738                            .dwpsn  file "../main.c",line 128,column 1,is_stmt
    1739 00000724 063FA2E6             LDW     .D2T2   *+SP(116),B12     ; |128| 
    1740                            .dwcfi  restore_reg, 28
    1741 00000728 05BF82E6             LDW     .D2T2   *+SP(112),B11     ; |128| 
    1742                            .dwcfi  restore_reg, 27
    1743 0000072c 053F62E6             LDW     .D2T2   *+SP(108),B10     ; |128| 
    1744                            .dwcfi  restore_reg, 26
    1745 00000730 04BF42E6             LDW     .D2T2   *+SP(104),B9      ; |128| 
    1746                            .dwcfi  restore_reg, 25
    1747 00000734 043F22E6             LDW     .D2T2   *+SP(100),B8      ; |128| 
    1748                            .dwcfi  restore_reg, 24
    1749 00000738 03BF02E6             LDW     .D2T2   *+SP(96),B7       ; |128| 
    1750                            .dwcfi  restore_reg, 23
    1751 0000073c 033EE2E6             LDW     .D2T2   *+SP(92),B6       ; |128| 
    1752                            .dwcfi  restore_reg, 22
    1753 00000740 02BEC2E6             LDW     .D2T2   *+SP(88),B5       ; |128| 
    1754                            .dwcfi  restore_reg, 21
    1755 00000744 023EA2E6             LDW     .D2T2   *+SP(84),B4       ; |128| 
    1756                            .dwcfi  restore_reg, 20
    1757 00000748 01BE82E6             LDW     .D2T2   *+SP(80),B3       ; |128| 
    1758                            .dwcfi  restore_reg, 19
    1759 0000074c 013E62E6             LDW     .D2T2   *+SP(76),B2       ; |128| 
    1760                            .dwcfi  restore_reg, 18
TMS320C6x Assembler PC v7.4.18 Mon Oct 30 12:06:01 2023

Tools Copyright (c) 1996-2015 Texas Instruments Incorporated
C:\Users\Lenovo\AppData\Local\Temp\1693210                           PAGE   33

    1761 00000750 00BE42E6             LDW     .D2T2   *+SP(72),B1       ; |128| 
    1762                            .dwcfi  restore_reg, 17
    1763 00000754 003E22E6             LDW     .D2T2   *+SP(68),B0       ; |128| 
    1764                            .dwcfi  restore_reg, 16
    1765 00000758 073E02E4             LDW     .D2T1   *+SP(64),A14      ; |128| 
    1766                            .dwcfi  restore_reg, 14
    1767 0000075c 063CE3E4             LDDW    .D2T1   *+SP(56),A13:A12  ; |128| 
    1768                            .dwcfi  restore_reg, 13
    1769                            .dwcfi  restore_reg, 12
    1770 00000760 053CC3E4             LDDW    .D2T1   *+SP(48),A11:A10  ; |128| 
    1771                            .dwcfi  restore_reg, 11
    1772                            .dwcfi  restore_reg, 10
    1773 00000764 043CA3E4             LDDW    .D2T1   *+SP(40),A9:A8    ; |128| 
    1774                            .dwcfi  restore_reg, 9
    1775                            .dwcfi  restore_reg, 8
    1776 00000768 033C83E4             LDDW    .D2T1   *+SP(32),A7:A6    ; |128| 
    1777                            .dwcfi  restore_reg, 7
    1778                            .dwcfi  restore_reg, 6
    1779 0000076c 023C63E4             LDDW    .D2T1   *+SP(24),A5:A4    ; |128| 
    1780                            .dwcfi  restore_reg, 5
    1781                            .dwcfi  restore_reg, 4
    1782 00000770 013C43E4             LDDW    .D2T1   *+SP(16),A3:A2    ; |128| 
    1783                            .dwcfi  restore_reg, 3
    1784                            .dwcfi  restore_reg, 2
    1785 00000774 003C23E4             LDDW    .D2T1   *+SP(8),A1:A0     ; |128| 
    1786                            .dwcfi  restore_reg, 1
    1787                            .dwcfi  restore_reg, 0
    1788 00000778 06BFD2E6             LDW     .D2T2   *++SP(120),B13    ; |128| 
    1789                            .dwcfi  cfa_offset, 0
    1790                            .dwcfi  restore_reg, 29
    1791                            .dwcfi  cfa_offset, 0
    1792                    $C$DW$41        .dwtag  DW_TAG_TI_branch
    1793                            .dwattr $C$DW$41, DW_AT_low_pc(0x00)
    1794                            .dwattr $C$DW$41, DW_AT_TI_return
    1795 0000077c 001800E2             RET     .S2     IRP               ; |128| 
    1796 00000780 00008000             NOP             5
    1797                               ; BRANCH OCCURS {IRP}             ; |128| 
    1798                    
    1799                    $C$DW$42        .dwtag  DW_TAG_TI_loop
    1800                            .dwattr $C$DW$42, DW_AT_name("C:\\Users\\Lenovo\\AppData\\Local\\Temp\\1693210:$C$L14:1:169866
    1801                            .dwattr $C$DW$42, DW_AT_TI_begin_file("../main.c")
    1802                            .dwattr $C$DW$42, DW_AT_TI_begin_line(0x56)
    1803                            .dwattr $C$DW$42, DW_AT_TI_end_line(0x5b)
    1804                    $C$DW$43        .dwtag  DW_TAG_TI_loop_range
    1805                            .dwattr $C$DW$43, DW_AT_low_pc($C$DW$L$_c_int11$18$B)
    1806                            .dwattr $C$DW$43, DW_AT_high_pc($C$DW$L$_c_int11$18$E)
    1807                            .dwendtag $C$DW$42
    1808                    
    1809                    
    1810                    $C$DW$44        .dwtag  DW_TAG_TI_loop
    1811                            .dwattr $C$DW$44, DW_AT_name("C:\\Users\\Lenovo\\AppData\\Local\\Temp\\1693210:$C$L12:1:169866
    1812                            .dwattr $C$DW$44, DW_AT_TI_begin_file("../main.c")
    1813                            .dwattr $C$DW$44, DW_AT_TI_begin_line(0x48)
    1814                            .dwattr $C$DW$44, DW_AT_TI_end_line(0x54)
    1815                    $C$DW$45        .dwtag  DW_TAG_TI_loop_range
TMS320C6x Assembler PC v7.4.18 Mon Oct 30 12:06:01 2023

Tools Copyright (c) 1996-2015 Texas Instruments Incorporated
C:\Users\Lenovo\AppData\Local\Temp\1693210                           PAGE   34

    1816                            .dwattr $C$DW$45, DW_AT_low_pc($C$DW$L$_c_int11$16$B)
    1817                            .dwattr $C$DW$45, DW_AT_high_pc($C$DW$L$_c_int11$16$E)
    1818                            .dwendtag $C$DW$44
    1819                    
    1820                    
    1821                    $C$DW$46        .dwtag  DW_TAG_TI_loop
    1822                            .dwattr $C$DW$46, DW_AT_name("C:\\Users\\Lenovo\\AppData\\Local\\Temp\\1693210:$C$L9:1:1698663
    1823                            .dwattr $C$DW$46, DW_AT_TI_begin_file("../main.c")
    1824                            .dwattr $C$DW$46, DW_AT_TI_begin_line(0x3c)
    1825                            .dwattr $C$DW$46, DW_AT_TI_end_line(0x43)
    1826                    $C$DW$47        .dwtag  DW_TAG_TI_loop_range
    1827                            .dwattr $C$DW$47, DW_AT_low_pc($C$DW$L$_c_int11$11$B)
    1828                            .dwattr $C$DW$47, DW_AT_high_pc($C$DW$L$_c_int11$11$E)
    1829                            .dwendtag $C$DW$46
    1830                    
    1831                    
    1832                    $C$DW$48        .dwtag  DW_TAG_TI_loop
    1833                            .dwattr $C$DW$48, DW_AT_name("C:\\Users\\Lenovo\\AppData\\Local\\Temp\\1693210:$C$L5:1:1698663
    1834                            .dwattr $C$DW$48, DW_AT_TI_begin_file("../main.c")
    1835                            .dwattr $C$DW$48, DW_AT_TI_begin_line(0x64)
    1836                            .dwattr $C$DW$48, DW_AT_TI_end_line(0x6e)
    1837                    $C$DW$49        .dwtag  DW_TAG_TI_loop_range
    1838                            .dwattr $C$DW$49, DW_AT_low_pc($C$DW$L$_c_int11$4$B)
    1839                            .dwattr $C$DW$49, DW_AT_high_pc($C$DW$L$_c_int11$4$E)
    1840                    $C$DW$50        .dwtag  DW_TAG_TI_loop_range
    1841                            .dwattr $C$DW$50, DW_AT_low_pc($C$DW$L$_c_int11$5$B)
    1842                            .dwattr $C$DW$50, DW_AT_high_pc($C$DW$L$_c_int11$5$E)
    1843                    $C$DW$51        .dwtag  DW_TAG_TI_loop_range
    1844                            .dwattr $C$DW$51, DW_AT_low_pc($C$DW$L$_c_int11$6$B)
    1845                            .dwattr $C$DW$51, DW_AT_high_pc($C$DW$L$_c_int11$6$E)
    1846                    $C$DW$52        .dwtag  DW_TAG_TI_loop_range
    1847                            .dwattr $C$DW$52, DW_AT_low_pc($C$DW$L$_c_int11$7$B)
    1848                            .dwattr $C$DW$52, DW_AT_high_pc($C$DW$L$_c_int11$7$E)
    1849                            .dwendtag $C$DW$48
    1850                    
    1851                            .dwattr $C$DW$34, DW_AT_TI_end_file("../main.c")
    1852                            .dwattr $C$DW$34, DW_AT_TI_end_line(0x80)
    1853                            .dwattr $C$DW$34, DW_AT_TI_end_column(0x01)
    1854                            .dwendentry
    1855                            .dwendtag $C$DW$34
    1856                    
    1857                    ;*****************************************************************************
    1858                    ;* UNDEFINED EXTERNAL REFERENCES                                             *
    1859                    ;*****************************************************************************
    1860                            .global _output_left_sample
    1861                            .global _comm_intr
    1862                            .global __remi
    1863                            .global __remu
    1864                    
    1865                    ;******************************************************************************
    1866                    ;* BUILD ATTRIBUTES                                                           *
    1867                    ;******************************************************************************
    1868                            .battr "TI", Tag_File, 1, Tag_ABI_stack_align_needed(0)
    1869                            .battr "TI", Tag_File, 1, Tag_ABI_stack_align_preserved(0)
    1870                            .battr "TI", Tag_File, 1, Tag_Tramps_Use_SOC(0)
TMS320C6x Assembler PC v7.4.18 Mon Oct 30 12:06:01 2023

Tools Copyright (c) 1996-2015 Texas Instruments Incorporated
C:\Users\Lenovo\AppData\Local\Temp\1693210                           PAGE   35

    1871                    
    1872                    ;******************************************************************************
    1873                    ;* TYPE INFORMATION                                                           *
    1874                    ;******************************************************************************
    1875                    $C$DW$T$4       .dwtag  DW_TAG_base_type
    1876                            .dwattr $C$DW$T$4, DW_AT_encoding(DW_ATE_boolean)
    1877                            .dwattr $C$DW$T$4, DW_AT_name("bool")
    1878                            .dwattr $C$DW$T$4, DW_AT_byte_size(0x01)
    1879                    $C$DW$T$5       .dwtag  DW_TAG_base_type
    1880                            .dwattr $C$DW$T$5, DW_AT_encoding(DW_ATE_signed_char)
    1881                            .dwattr $C$DW$T$5, DW_AT_name("signed char")
    1882                            .dwattr $C$DW$T$5, DW_AT_byte_size(0x01)
    1883                    $C$DW$T$6       .dwtag  DW_TAG_base_type
    1884                            .dwattr $C$DW$T$6, DW_AT_encoding(DW_ATE_unsigned_char)
    1885                            .dwattr $C$DW$T$6, DW_AT_name("unsigned char")
    1886                            .dwattr $C$DW$T$6, DW_AT_byte_size(0x01)
    1887                    $C$DW$T$7       .dwtag  DW_TAG_base_type
    1888                            .dwattr $C$DW$T$7, DW_AT_encoding(DW_ATE_signed_char)
    1889                            .dwattr $C$DW$T$7, DW_AT_name("wchar_t")
    1890                            .dwattr $C$DW$T$7, DW_AT_byte_size(0x02)
    1891                    $C$DW$T$8       .dwtag  DW_TAG_base_type
    1892                            .dwattr $C$DW$T$8, DW_AT_encoding(DW_ATE_signed)
    1893                            .dwattr $C$DW$T$8, DW_AT_name("short")
    1894                            .dwattr $C$DW$T$8, DW_AT_byte_size(0x02)
    1895                    
    1896                    $C$DW$T$23      .dwtag  DW_TAG_array_type
    1897                            .dwattr $C$DW$T$23, DW_AT_type(*$C$DW$T$8)
    1898                            .dwattr $C$DW$T$23, DW_AT_language(DW_LANG_C)
    1899                            .dwattr $C$DW$T$23, DW_AT_byte_size(0x180)
    1900                    $C$DW$53        .dwtag  DW_TAG_subrange_type
    1901                            .dwattr $C$DW$53, DW_AT_upper_bound(0xbf)
    1902                            .dwendtag $C$DW$T$23
    1903                    
    1904                    
    1905                    $C$DW$T$24      .dwtag  DW_TAG_array_type
    1906                            .dwattr $C$DW$T$24, DW_AT_type(*$C$DW$T$8)
    1907                            .dwattr $C$DW$T$24, DW_AT_language(DW_LANG_C)
    1908                            .dwattr $C$DW$T$24, DW_AT_byte_size(0x10)
    1909                    $C$DW$54        .dwtag  DW_TAG_subrange_type
    1910                            .dwattr $C$DW$54, DW_AT_upper_bound(0x07)
    1911                            .dwendtag $C$DW$T$24
    1912                    
    1913                    $C$DW$T$9       .dwtag  DW_TAG_base_type
    1914                            .dwattr $C$DW$T$9, DW_AT_encoding(DW_ATE_unsigned)
    1915                            .dwattr $C$DW$T$9, DW_AT_name("unsigned short")
    1916                            .dwattr $C$DW$T$9, DW_AT_byte_size(0x02)
    1917                    $C$DW$T$26      .dwtag  DW_TAG_typedef, DW_AT_name("Uint16")
    1918                            .dwattr $C$DW$T$26, DW_AT_type(*$C$DW$T$9)
    1919                            .dwattr $C$DW$T$26, DW_AT_language(DW_LANG_C)
    1920                    
    1921                    $C$DW$T$27      .dwtag  DW_TAG_array_type
    1922                            .dwattr $C$DW$T$27, DW_AT_type(*$C$DW$T$26)
    1923                            .dwattr $C$DW$T$27, DW_AT_language(DW_LANG_C)
    1924                            .dwattr $C$DW$T$27, DW_AT_byte_size(0x10)
    1925                    $C$DW$55        .dwtag  DW_TAG_subrange_type
TMS320C6x Assembler PC v7.4.18 Mon Oct 30 12:06:01 2023

Tools Copyright (c) 1996-2015 Texas Instruments Incorporated
C:\Users\Lenovo\AppData\Local\Temp\1693210                           PAGE   36

    1926                            .dwattr $C$DW$55, DW_AT_upper_bound(0x07)
    1927                            .dwendtag $C$DW$T$27
    1928                    
    1929                    $C$DW$T$10      .dwtag  DW_TAG_base_type
    1930                            .dwattr $C$DW$T$10, DW_AT_encoding(DW_ATE_signed)
    1931                            .dwattr $C$DW$T$10, DW_AT_name("int")
    1932                            .dwattr $C$DW$T$10, DW_AT_byte_size(0x04)
    1933                    $C$DW$T$11      .dwtag  DW_TAG_base_type
    1934                            .dwattr $C$DW$T$11, DW_AT_encoding(DW_ATE_unsigned)
    1935                            .dwattr $C$DW$T$11, DW_AT_name("unsigned int")
    1936                            .dwattr $C$DW$T$11, DW_AT_byte_size(0x04)
    1937                    $C$DW$T$31      .dwtag  DW_TAG_typedef, DW_AT_name("Uint32")
    1938                            .dwattr $C$DW$T$31, DW_AT_type(*$C$DW$T$11)
    1939                            .dwattr $C$DW$T$31, DW_AT_language(DW_LANG_C)
    1940                    
    1941                    $C$DW$T$32      .dwtag  DW_TAG_array_type
    1942                            .dwattr $C$DW$T$32, DW_AT_type(*$C$DW$T$31)
    1943                            .dwattr $C$DW$T$32, DW_AT_language(DW_LANG_C)
    1944                            .dwattr $C$DW$T$32, DW_AT_byte_size(0x20)
    1945                    $C$DW$56        .dwtag  DW_TAG_subrange_type
    1946                            .dwattr $C$DW$56, DW_AT_upper_bound(0x07)
    1947                            .dwendtag $C$DW$T$32
    1948                    
    1949                    $C$DW$T$12      .dwtag  DW_TAG_base_type
    1950                            .dwattr $C$DW$T$12, DW_AT_encoding(DW_ATE_signed)
    1951                            .dwattr $C$DW$T$12, DW_AT_name("long")
    1952                            .dwattr $C$DW$T$12, DW_AT_byte_size(0x08)
    1953                            .dwattr $C$DW$T$12, DW_AT_bit_size(0x28)
    1954                            .dwattr $C$DW$T$12, DW_AT_bit_offset(0x18)
    1955                    $C$DW$T$13      .dwtag  DW_TAG_base_type
    1956                            .dwattr $C$DW$T$13, DW_AT_encoding(DW_ATE_unsigned)
    1957                            .dwattr $C$DW$T$13, DW_AT_name("unsigned long")
    1958                            .dwattr $C$DW$T$13, DW_AT_byte_size(0x08)
    1959                            .dwattr $C$DW$T$13, DW_AT_bit_size(0x28)
    1960                            .dwattr $C$DW$T$13, DW_AT_bit_offset(0x18)
    1961                    $C$DW$T$14      .dwtag  DW_TAG_base_type
    1962                            .dwattr $C$DW$T$14, DW_AT_encoding(DW_ATE_signed)
    1963                            .dwattr $C$DW$T$14, DW_AT_name("long long")
    1964                            .dwattr $C$DW$T$14, DW_AT_byte_size(0x08)
    1965                    $C$DW$T$15      .dwtag  DW_TAG_base_type
    1966                            .dwattr $C$DW$T$15, DW_AT_encoding(DW_ATE_unsigned)
    1967                            .dwattr $C$DW$T$15, DW_AT_name("unsigned long long")
    1968                            .dwattr $C$DW$T$15, DW_AT_byte_size(0x08)
    1969                    $C$DW$T$16      .dwtag  DW_TAG_base_type
    1970                            .dwattr $C$DW$T$16, DW_AT_encoding(DW_ATE_float)
    1971                            .dwattr $C$DW$T$16, DW_AT_name("float")
    1972                            .dwattr $C$DW$T$16, DW_AT_byte_size(0x04)
    1973                    $C$DW$T$17      .dwtag  DW_TAG_base_type
    1974                            .dwattr $C$DW$T$17, DW_AT_encoding(DW_ATE_float)
    1975                            .dwattr $C$DW$T$17, DW_AT_name("double")
    1976                            .dwattr $C$DW$T$17, DW_AT_byte_size(0x08)
    1977                    $C$DW$T$18      .dwtag  DW_TAG_base_type
    1978                            .dwattr $C$DW$T$18, DW_AT_encoding(DW_ATE_float)
    1979                            .dwattr $C$DW$T$18, DW_AT_name("long double")
    1980                            .dwattr $C$DW$T$18, DW_AT_byte_size(0x08)
TMS320C6x Assembler PC v7.4.18 Mon Oct 30 12:06:01 2023

Tools Copyright (c) 1996-2015 Texas Instruments Incorporated
C:\Users\Lenovo\AppData\Local\Temp\1693210                           PAGE   37

    1981                            .dwattr $C$DW$CU, DW_AT_language(DW_LANG_C)
    1982                    
    1983                    ;***************************************************************
    1984                    ;* DWARF CIE ENTRIES                                           *
    1985                    ;***************************************************************
    1986                    
    1987                    $C$DW$CIE       .dwcie 228
    1988                            .dwcfi  cfa_register, 31
    1989                            .dwcfi  cfa_offset, 0
    1990                            .dwcfi  undefined, 0
    1991                            .dwcfi  undefined, 1
    1992                            .dwcfi  undefined, 2
    1993                            .dwcfi  undefined, 3
    1994                            .dwcfi  undefined, 4
    1995                            .dwcfi  undefined, 5
    1996                            .dwcfi  undefined, 6
    1997                            .dwcfi  undefined, 7
    1998                            .dwcfi  undefined, 8
    1999                            .dwcfi  undefined, 9
    2000                            .dwcfi  same_value, 10
    2001                            .dwcfi  same_value, 11
    2002                            .dwcfi  same_value, 12
    2003                            .dwcfi  same_value, 13
    2004                            .dwcfi  same_value, 14
    2005                            .dwcfi  same_value, 15
    2006                            .dwcfi  undefined, 16
    2007                            .dwcfi  undefined, 17
    2008                            .dwcfi  undefined, 18
    2009                            .dwcfi  undefined, 19
    2010                            .dwcfi  undefined, 20
    2011                            .dwcfi  undefined, 21
    2012                            .dwcfi  undefined, 22
    2013                            .dwcfi  undefined, 23
    2014                            .dwcfi  undefined, 24
    2015                            .dwcfi  undefined, 25
    2016                            .dwcfi  same_value, 26
    2017                            .dwcfi  same_value, 27
    2018                            .dwcfi  same_value, 28
    2019                            .dwcfi  same_value, 29
    2020                            .dwcfi  same_value, 30
    2021                            .dwcfi  same_value, 31
    2022                            .dwcfi  same_value, 32
    2023                            .dwcfi  undefined, 33
    2024                            .dwcfi  undefined, 34
    2025                            .dwcfi  undefined, 35
    2026                            .dwcfi  undefined, 36
    2027                            .dwcfi  undefined, 37
    2028                            .dwcfi  undefined, 38
    2029                            .dwcfi  undefined, 39
    2030                            .dwcfi  undefined, 40
    2031                            .dwcfi  undefined, 41
    2032                            .dwcfi  undefined, 42
    2033                            .dwcfi  undefined, 43
    2034                            .dwcfi  undefined, 44
    2035                            .dwcfi  undefined, 45
TMS320C6x Assembler PC v7.4.18 Mon Oct 30 12:06:01 2023

Tools Copyright (c) 1996-2015 Texas Instruments Incorporated
C:\Users\Lenovo\AppData\Local\Temp\1693210                           PAGE   38

    2036                            .dwcfi  undefined, 46
    2037                            .dwcfi  undefined, 47
    2038                            .dwcfi  undefined, 48
    2039                            .dwcfi  undefined, 49
    2040                            .dwcfi  undefined, 50
    2041                            .dwcfi  undefined, 51
    2042                            .dwcfi  undefined, 52
    2043                            .dwcfi  undefined, 53
    2044                            .dwcfi  undefined, 54
    2045                            .dwcfi  undefined, 55
    2046                            .dwcfi  undefined, 56
    2047                            .dwcfi  undefined, 57
    2048                            .dwcfi  undefined, 58
    2049                            .dwcfi  undefined, 59
    2050                            .dwcfi  undefined, 60
    2051                            .dwcfi  undefined, 61
    2052                            .dwcfi  undefined, 62
    2053                            .dwcfi  undefined, 63
    2054                            .dwcfi  undefined, 64
    2055                            .dwcfi  undefined, 65
    2056                            .dwcfi  undefined, 66
    2057                            .dwcfi  undefined, 67
    2058                            .dwcfi  undefined, 68
    2059                            .dwcfi  undefined, 69
    2060                            .dwcfi  undefined, 70
    2061                            .dwcfi  undefined, 71
    2062                            .dwcfi  undefined, 72
    2063                            .dwcfi  undefined, 73
    2064                            .dwcfi  undefined, 74
    2065                            .dwcfi  undefined, 75
    2066                            .dwcfi  undefined, 76
    2067                            .dwcfi  undefined, 77
    2068                            .dwcfi  undefined, 78
    2069                            .dwcfi  undefined, 79
    2070                            .dwcfi  undefined, 80
    2071                            .dwcfi  undefined, 81
    2072                            .dwcfi  undefined, 82
    2073                            .dwcfi  undefined, 83
    2074                            .dwcfi  undefined, 84
    2075                            .dwcfi  undefined, 85
    2076                            .dwcfi  undefined, 86
    2077                            .dwcfi  undefined, 87
    2078                            .dwcfi  undefined, 88
    2079                            .dwcfi  undefined, 89
    2080                            .dwcfi  undefined, 90
    2081                            .dwcfi  undefined, 91
    2082                            .dwcfi  undefined, 92
    2083                            .dwcfi  undefined, 93
    2084                            .dwcfi  undefined, 94
    2085                            .dwcfi  undefined, 95
    2086                            .dwcfi  undefined, 96
    2087                            .dwcfi  undefined, 97
    2088                            .dwcfi  undefined, 98
    2089                            .dwcfi  undefined, 99
    2090                            .dwcfi  undefined, 100
TMS320C6x Assembler PC v7.4.18 Mon Oct 30 12:06:01 2023

Tools Copyright (c) 1996-2015 Texas Instruments Incorporated
C:\Users\Lenovo\AppData\Local\Temp\1693210                           PAGE   39

    2091                            .dwcfi  undefined, 101
    2092                            .dwcfi  undefined, 102
    2093                            .dwcfi  undefined, 103
    2094                            .dwcfi  undefined, 104
    2095                            .dwcfi  undefined, 105
    2096                            .dwcfi  undefined, 106
    2097                            .dwcfi  undefined, 107
    2098                            .dwcfi  undefined, 108
    2099                            .dwcfi  undefined, 109
    2100                            .dwcfi  undefined, 110
    2101                            .dwcfi  undefined, 111
    2102                            .dwcfi  undefined, 112
    2103                            .dwcfi  undefined, 113
    2104                            .dwcfi  undefined, 114
    2105                            .dwcfi  undefined, 115
    2106                            .dwcfi  undefined, 116
    2107                            .dwcfi  undefined, 117
    2108                            .dwcfi  undefined, 118
    2109                            .dwcfi  undefined, 119
    2110                            .dwcfi  undefined, 120
    2111                            .dwcfi  undefined, 121
    2112                            .dwcfi  undefined, 122
    2113                            .dwcfi  undefined, 123
    2114                            .dwcfi  undefined, 124
    2115                            .dwcfi  undefined, 125
    2116                            .dwcfi  undefined, 126
    2117                            .dwcfi  undefined, 127
    2118                            .dwcfi  undefined, 128
    2119                            .dwcfi  undefined, 129
    2120                            .dwcfi  undefined, 130
    2121                            .dwcfi  undefined, 131
    2122                            .dwcfi  undefined, 132
    2123                            .dwcfi  undefined, 133
    2124                            .dwcfi  undefined, 134
    2125                            .dwcfi  undefined, 135
    2126                            .dwcfi  undefined, 136
    2127                            .dwcfi  undefined, 137
    2128                            .dwcfi  undefined, 138
    2129                            .dwcfi  undefined, 139
    2130                            .dwcfi  undefined, 140
    2131                            .dwcfi  undefined, 141
    2132                            .dwcfi  undefined, 142
    2133                            .dwcfi  undefined, 143
    2134                            .dwcfi  undefined, 144
    2135                            .dwcfi  undefined, 145
    2136                            .dwcfi  undefined, 146
    2137                            .dwcfi  undefined, 147
    2138                            .dwcfi  undefined, 148
    2139                            .dwcfi  undefined, 149
    2140                            .dwcfi  undefined, 150
    2141                            .dwcfi  undefined, 151
    2142                            .dwcfi  undefined, 152
    2143                            .dwcfi  undefined, 153
    2144                            .dwcfi  undefined, 154
    2145                            .dwcfi  undefined, 155
TMS320C6x Assembler PC v7.4.18 Mon Oct 30 12:06:01 2023

Tools Copyright (c) 1996-2015 Texas Instruments Incorporated
C:\Users\Lenovo\AppData\Local\Temp\1693210                           PAGE   40

    2146                            .dwcfi  undefined, 156
    2147                            .dwcfi  undefined, 157
    2148                            .dwcfi  undefined, 158
    2149                            .dwcfi  undefined, 159
    2150                            .dwcfi  undefined, 160
    2151                            .dwcfi  undefined, 161
    2152                            .dwcfi  undefined, 162
    2153                            .dwcfi  undefined, 163
    2154                            .dwcfi  undefined, 164
    2155                            .dwcfi  undefined, 165
    2156                            .dwcfi  undefined, 166
    2157                            .dwcfi  undefined, 167
    2158                            .dwcfi  undefined, 168
    2159                            .dwcfi  undefined, 169
    2160                            .dwcfi  undefined, 170
    2161                            .dwcfi  undefined, 171
    2162                            .dwcfi  undefined, 172
    2163                            .dwcfi  undefined, 173
    2164                            .dwcfi  undefined, 174
    2165                            .dwcfi  undefined, 175
    2166                            .dwcfi  undefined, 176
    2167                            .dwcfi  undefined, 177
    2168                            .dwcfi  undefined, 178
    2169                            .dwcfi  undefined, 179
    2170                            .dwcfi  undefined, 180
    2171                            .dwcfi  undefined, 181
    2172                            .dwcfi  undefined, 182
    2173                            .dwcfi  undefined, 183
    2174                            .dwcfi  undefined, 184
    2175                            .dwcfi  undefined, 185
    2176                            .dwcfi  undefined, 186
    2177                            .dwcfi  undefined, 187
    2178                            .dwcfi  undefined, 188
    2179                            .dwcfi  undefined, 189
    2180                            .dwcfi  undefined, 190
    2181                            .dwcfi  undefined, 191
    2182                            .dwcfi  undefined, 192
    2183                            .dwcfi  undefined, 193
    2184                            .dwcfi  undefined, 194
    2185                            .dwcfi  undefined, 195
    2186                            .dwcfi  undefined, 196
    2187                            .dwcfi  undefined, 197
    2188                            .dwcfi  undefined, 198
    2189                            .dwcfi  undefined, 199
    2190                            .dwcfi  undefined, 200
    2191                            .dwcfi  undefined, 201
    2192                            .dwcfi  undefined, 202
    2193                            .dwcfi  undefined, 203
    2194                            .dwcfi  undefined, 204
    2195                            .dwcfi  undefined, 205
    2196                            .dwcfi  undefined, 206
    2197                            .dwcfi  undefined, 207
    2198                            .dwcfi  undefined, 208
    2199                            .dwcfi  undefined, 209
    2200                            .dwcfi  undefined, 210
TMS320C6x Assembler PC v7.4.18 Mon Oct 30 12:06:01 2023

Tools Copyright (c) 1996-2015 Texas Instruments Incorporated
C:\Users\Lenovo\AppData\Local\Temp\1693210                           PAGE   41

    2201                            .dwcfi  undefined, 211
    2202                            .dwcfi  undefined, 212
    2203                            .dwcfi  undefined, 213
    2204                            .dwcfi  undefined, 214
    2205                            .dwcfi  undefined, 215
    2206                            .dwcfi  undefined, 216
    2207                            .dwcfi  undefined, 217
    2208                            .dwcfi  undefined, 218
    2209                            .dwcfi  undefined, 219
    2210                            .dwcfi  undefined, 220
    2211                            .dwcfi  undefined, 221
    2212                            .dwcfi  undefined, 222
    2213                            .dwcfi  undefined, 223
    2214                            .dwcfi  undefined, 224
    2215                            .dwcfi  undefined, 225
    2216                            .dwcfi  undefined, 226
    2217                            .dwcfi  undefined, 227
    2218                            .dwcfi  undefined, 228
    2219                            .dwendentry
    2220                    
    2221                    ;***************************************************************
    2222                    ;* DWARF REGISTER MAP                                          *
    2223                    ;***************************************************************
    2224                    
    2225                    $C$DW$57        .dwtag  DW_TAG_TI_assign_register, DW_AT_name("A0")
    2226                            .dwattr $C$DW$57, DW_AT_location[DW_OP_reg0]
    2227                    $C$DW$58        .dwtag  DW_TAG_TI_assign_register, DW_AT_name("A1")
    2228                            .dwattr $C$DW$58, DW_AT_location[DW_OP_reg1]
    2229                    $C$DW$59        .dwtag  DW_TAG_TI_assign_register, DW_AT_name("A2")
    2230                            .dwattr $C$DW$59, DW_AT_location[DW_OP_reg2]
    2231                    $C$DW$60        .dwtag  DW_TAG_TI_assign_register, DW_AT_name("A3")
    2232                            .dwattr $C$DW$60, DW_AT_location[DW_OP_reg3]
    2233                    $C$DW$61        .dwtag  DW_TAG_TI_assign_register, DW_AT_name("A4")
    2234                            .dwattr $C$DW$61, DW_AT_location[DW_OP_reg4]
    2235                    $C$DW$62        .dwtag  DW_TAG_TI_assign_register, DW_AT_name("A5")
    2236                            .dwattr $C$DW$62, DW_AT_location[DW_OP_reg5]
    2237                    $C$DW$63        .dwtag  DW_TAG_TI_assign_register, DW_AT_name("A6")
    2238                            .dwattr $C$DW$63, DW_AT_location[DW_OP_reg6]
    2239                    $C$DW$64        .dwtag  DW_TAG_TI_assign_register, DW_AT_name("A7")
    2240                            .dwattr $C$DW$64, DW_AT_location[DW_OP_reg7]
    2241                    $C$DW$65        .dwtag  DW_TAG_TI_assign_register, DW_AT_name("A8")
    2242                            .dwattr $C$DW$65, DW_AT_location[DW_OP_reg8]
    2243                    $C$DW$66        .dwtag  DW_TAG_TI_assign_register, DW_AT_name("A9")
    2244                            .dwattr $C$DW$66, DW_AT_location[DW_OP_reg9]
    2245                    $C$DW$67        .dwtag  DW_TAG_TI_assign_register, DW_AT_name("A10")
    2246                            .dwattr $C$DW$67, DW_AT_location[DW_OP_reg10]
    2247                    $C$DW$68        .dwtag  DW_TAG_TI_assign_register, DW_AT_name("A11")
    2248                            .dwattr $C$DW$68, DW_AT_location[DW_OP_reg11]
    2249                    $C$DW$69        .dwtag  DW_TAG_TI_assign_register, DW_AT_name("A12")
    2250                            .dwattr $C$DW$69, DW_AT_location[DW_OP_reg12]
    2251                    $C$DW$70        .dwtag  DW_TAG_TI_assign_register, DW_AT_name("A13")
    2252                            .dwattr $C$DW$70, DW_AT_location[DW_OP_reg13]
    2253                    $C$DW$71        .dwtag  DW_TAG_TI_assign_register, DW_AT_name("A14")
    2254                            .dwattr $C$DW$71, DW_AT_location[DW_OP_reg14]
    2255                    $C$DW$72        .dwtag  DW_TAG_TI_assign_register, DW_AT_name("A15")
TMS320C6x Assembler PC v7.4.18 Mon Oct 30 12:06:01 2023

Tools Copyright (c) 1996-2015 Texas Instruments Incorporated
C:\Users\Lenovo\AppData\Local\Temp\1693210                           PAGE   42

    2256                            .dwattr $C$DW$72, DW_AT_location[DW_OP_reg15]
    2257                    $C$DW$73        .dwtag  DW_TAG_TI_assign_register, DW_AT_name("B0")
    2258                            .dwattr $C$DW$73, DW_AT_location[DW_OP_reg16]
    2259                    $C$DW$74        .dwtag  DW_TAG_TI_assign_register, DW_AT_name("B1")
    2260                            .dwattr $C$DW$74, DW_AT_location[DW_OP_reg17]
    2261                    $C$DW$75        .dwtag  DW_TAG_TI_assign_register, DW_AT_name("B2")
    2262                            .dwattr $C$DW$75, DW_AT_location[DW_OP_reg18]
    2263                    $C$DW$76        .dwtag  DW_TAG_TI_assign_register, DW_AT_name("B3")
    2264                            .dwattr $C$DW$76, DW_AT_location[DW_OP_reg19]
    2265                    $C$DW$77        .dwtag  DW_TAG_TI_assign_register, DW_AT_name("B4")
    2266                            .dwattr $C$DW$77, DW_AT_location[DW_OP_reg20]
    2267                    $C$DW$78        .dwtag  DW_TAG_TI_assign_register, DW_AT_name("B5")
    2268                            .dwattr $C$DW$78, DW_AT_location[DW_OP_reg21]
    2269                    $C$DW$79        .dwtag  DW_TAG_TI_assign_register, DW_AT_name("B6")
    2270                            .dwattr $C$DW$79, DW_AT_location[DW_OP_reg22]
    2271                    $C$DW$80        .dwtag  DW_TAG_TI_assign_register, DW_AT_name("B7")
    2272                            .dwattr $C$DW$80, DW_AT_location[DW_OP_reg23]
    2273                    $C$DW$81        .dwtag  DW_TAG_TI_assign_register, DW_AT_name("B8")
    2274                            .dwattr $C$DW$81, DW_AT_location[DW_OP_reg24]
    2275                    $C$DW$82        .dwtag  DW_TAG_TI_assign_register, DW_AT_name("B9")
    2276                            .dwattr $C$DW$82, DW_AT_location[DW_OP_reg25]
    2277                    $C$DW$83        .dwtag  DW_TAG_TI_assign_register, DW_AT_name("B10")
    2278                            .dwattr $C$DW$83, DW_AT_location[DW_OP_reg26]
    2279                    $C$DW$84        .dwtag  DW_TAG_TI_assign_register, DW_AT_name("B11")
    2280                            .dwattr $C$DW$84, DW_AT_location[DW_OP_reg27]
    2281                    $C$DW$85        .dwtag  DW_TAG_TI_assign_register, DW_AT_name("B12")
    2282                            .dwattr $C$DW$85, DW_AT_location[DW_OP_reg28]
    2283                    $C$DW$86        .dwtag  DW_TAG_TI_assign_register, DW_AT_name("B13")
    2284                            .dwattr $C$DW$86, DW_AT_location[DW_OP_reg29]
    2285                    $C$DW$87        .dwtag  DW_TAG_TI_assign_register, DW_AT_name("DP")
    2286                            .dwattr $C$DW$87, DW_AT_location[DW_OP_reg30]
    2287                    $C$DW$88        .dwtag  DW_TAG_TI_assign_register, DW_AT_name("SP")
    2288                            .dwattr $C$DW$88, DW_AT_location[DW_OP_reg31]
    2289                    $C$DW$89        .dwtag  DW_TAG_TI_assign_register, DW_AT_name("FP")
    2290                            .dwattr $C$DW$89, DW_AT_location[DW_OP_regx 0x20]
    2291                    $C$DW$90        .dwtag  DW_TAG_TI_assign_register, DW_AT_name("PC")
    2292                            .dwattr $C$DW$90, DW_AT_location[DW_OP_regx 0x21]
    2293                    $C$DW$91        .dwtag  DW_TAG_TI_assign_register, DW_AT_name("IRP")
    2294                            .dwattr $C$DW$91, DW_AT_location[DW_OP_regx 0x22]
    2295                    $C$DW$92        .dwtag  DW_TAG_TI_assign_register, DW_AT_name("IFR")
    2296                            .dwattr $C$DW$92, DW_AT_location[DW_OP_regx 0x23]
    2297                    $C$DW$93        .dwtag  DW_TAG_TI_assign_register, DW_AT_name("NRP")
    2298                            .dwattr $C$DW$93, DW_AT_location[DW_OP_regx 0x24]
    2299                    $C$DW$94        .dwtag  DW_TAG_TI_assign_register, DW_AT_name("A16")
    2300                            .dwattr $C$DW$94, DW_AT_location[DW_OP_regx 0x25]
    2301                    $C$DW$95        .dwtag  DW_TAG_TI_assign_register, DW_AT_name("A17")
    2302                            .dwattr $C$DW$95, DW_AT_location[DW_OP_regx 0x26]
    2303                    $C$DW$96        .dwtag  DW_TAG_TI_assign_register, DW_AT_name("A18")
    2304                            .dwattr $C$DW$96, DW_AT_location[DW_OP_regx 0x27]
    2305                    $C$DW$97        .dwtag  DW_TAG_TI_assign_register, DW_AT_name("A19")
    2306                            .dwattr $C$DW$97, DW_AT_location[DW_OP_regx 0x28]
    2307                    $C$DW$98        .dwtag  DW_TAG_TI_assign_register, DW_AT_name("A20")
    2308                            .dwattr $C$DW$98, DW_AT_location[DW_OP_regx 0x29]
    2309                    $C$DW$99        .dwtag  DW_TAG_TI_assign_register, DW_AT_name("A21")
    2310                            .dwattr $C$DW$99, DW_AT_location[DW_OP_regx 0x2a]
TMS320C6x Assembler PC v7.4.18 Mon Oct 30 12:06:01 2023

Tools Copyright (c) 1996-2015 Texas Instruments Incorporated
C:\Users\Lenovo\AppData\Local\Temp\1693210                           PAGE   43

    2311                    $C$DW$100       .dwtag  DW_TAG_TI_assign_register, DW_AT_name("A22")
    2312                            .dwattr $C$DW$100, DW_AT_location[DW_OP_regx 0x2b]
    2313                    $C$DW$101       .dwtag  DW_TAG_TI_assign_register, DW_AT_name("A23")
    2314                            .dwattr $C$DW$101, DW_AT_location[DW_OP_regx 0x2c]
    2315                    $C$DW$102       .dwtag  DW_TAG_TI_assign_register, DW_AT_name("A24")
    2316                            .dwattr $C$DW$102, DW_AT_location[DW_OP_regx 0x2d]
    2317                    $C$DW$103       .dwtag  DW_TAG_TI_assign_register, DW_AT_name("A25")
    2318                            .dwattr $C$DW$103, DW_AT_location[DW_OP_regx 0x2e]
    2319                    $C$DW$104       .dwtag  DW_TAG_TI_assign_register, DW_AT_name("A26")
    2320                            .dwattr $C$DW$104, DW_AT_location[DW_OP_regx 0x2f]
    2321                    $C$DW$105       .dwtag  DW_TAG_TI_assign_register, DW_AT_name("A27")
    2322                            .dwattr $C$DW$105, DW_AT_location[DW_OP_regx 0x30]
    2323                    $C$DW$106       .dwtag  DW_TAG_TI_assign_register, DW_AT_name("A28")
    2324                            .dwattr $C$DW$106, DW_AT_location[DW_OP_regx 0x31]
    2325                    $C$DW$107       .dwtag  DW_TAG_TI_assign_register, DW_AT_name("A29")
    2326                            .dwattr $C$DW$107, DW_AT_location[DW_OP_regx 0x32]
    2327                    $C$DW$108       .dwtag  DW_TAG_TI_assign_register, DW_AT_name("A30")
    2328                            .dwattr $C$DW$108, DW_AT_location[DW_OP_regx 0x33]
    2329                    $C$DW$109       .dwtag  DW_TAG_TI_assign_register, DW_AT_name("A31")
    2330                            .dwattr $C$DW$109, DW_AT_location[DW_OP_regx 0x34]
    2331                    $C$DW$110       .dwtag  DW_TAG_TI_assign_register, DW_AT_name("B16")
    2332                            .dwattr $C$DW$110, DW_AT_location[DW_OP_regx 0x35]
    2333                    $C$DW$111       .dwtag  DW_TAG_TI_assign_register, DW_AT_name("B17")
    2334                            .dwattr $C$DW$111, DW_AT_location[DW_OP_regx 0x36]
    2335                    $C$DW$112       .dwtag  DW_TAG_TI_assign_register, DW_AT_name("B18")
    2336                            .dwattr $C$DW$112, DW_AT_location[DW_OP_regx 0x37]
    2337                    $C$DW$113       .dwtag  DW_TAG_TI_assign_register, DW_AT_name("B19")
    2338                            .dwattr $C$DW$113, DW_AT_location[DW_OP_regx 0x38]
    2339                    $C$DW$114       .dwtag  DW_TAG_TI_assign_register, DW_AT_name("B20")
    2340                            .dwattr $C$DW$114, DW_AT_location[DW_OP_regx 0x39]
    2341                    $C$DW$115       .dwtag  DW_TAG_TI_assign_register, DW_AT_name("B21")
    2342                            .dwattr $C$DW$115, DW_AT_location[DW_OP_regx 0x3a]
    2343                    $C$DW$116       .dwtag  DW_TAG_TI_assign_register, DW_AT_name("B22")
    2344                            .dwattr $C$DW$116, DW_AT_location[DW_OP_regx 0x3b]
    2345                    $C$DW$117       .dwtag  DW_TAG_TI_assign_register, DW_AT_name("B23")
    2346                            .dwattr $C$DW$117, DW_AT_location[DW_OP_regx 0x3c]
    2347                    $C$DW$118       .dwtag  DW_TAG_TI_assign_register, DW_AT_name("B24")
    2348                            .dwattr $C$DW$118, DW_AT_location[DW_OP_regx 0x3d]
    2349                    $C$DW$119       .dwtag  DW_TAG_TI_assign_register, DW_AT_name("B25")
    2350                            .dwattr $C$DW$119, DW_AT_location[DW_OP_regx 0x3e]
    2351                    $C$DW$120       .dwtag  DW_TAG_TI_assign_register, DW_AT_name("B26")
    2352                            .dwattr $C$DW$120, DW_AT_location[DW_OP_regx 0x3f]
    2353                    $C$DW$121       .dwtag  DW_TAG_TI_assign_register, DW_AT_name("B27")
    2354                            .dwattr $C$DW$121, DW_AT_location[DW_OP_regx 0x40]
    2355                    $C$DW$122       .dwtag  DW_TAG_TI_assign_register, DW_AT_name("B28")
    2356                            .dwattr $C$DW$122, DW_AT_location[DW_OP_regx 0x41]
    2357                    $C$DW$123       .dwtag  DW_TAG_TI_assign_register, DW_AT_name("B29")
    2358                            .dwattr $C$DW$123, DW_AT_location[DW_OP_regx 0x42]
    2359                    $C$DW$124       .dwtag  DW_TAG_TI_assign_register, DW_AT_name("B30")
    2360                            .dwattr $C$DW$124, DW_AT_location[DW_OP_regx 0x43]
    2361                    $C$DW$125       .dwtag  DW_TAG_TI_assign_register, DW_AT_name("B31")
    2362                            .dwattr $C$DW$125, DW_AT_location[DW_OP_regx 0x44]
    2363                    $C$DW$126       .dwtag  DW_TAG_TI_assign_register, DW_AT_name("AMR")
    2364                            .dwattr $C$DW$126, DW_AT_location[DW_OP_regx 0x45]
    2365                    $C$DW$127       .dwtag  DW_TAG_TI_assign_register, DW_AT_name("CSR")
TMS320C6x Assembler PC v7.4.18 Mon Oct 30 12:06:01 2023

Tools Copyright (c) 1996-2015 Texas Instruments Incorporated
C:\Users\Lenovo\AppData\Local\Temp\1693210                           PAGE   44

    2366                            .dwattr $C$DW$127, DW_AT_location[DW_OP_regx 0x46]
    2367                    $C$DW$128       .dwtag  DW_TAG_TI_assign_register, DW_AT_name("ISR")
    2368                            .dwattr $C$DW$128, DW_AT_location[DW_OP_regx 0x47]
    2369                    $C$DW$129       .dwtag  DW_TAG_TI_assign_register, DW_AT_name("ICR")
    2370                            .dwattr $C$DW$129, DW_AT_location[DW_OP_regx 0x48]
    2371                    $C$DW$130       .dwtag  DW_TAG_TI_assign_register, DW_AT_name("IER")
    2372                            .dwattr $C$DW$130, DW_AT_location[DW_OP_regx 0x49]
    2373                    $C$DW$131       .dwtag  DW_TAG_TI_assign_register, DW_AT_name("ISTP")
    2374                            .dwattr $C$DW$131, DW_AT_location[DW_OP_regx 0x4a]
    2375                    $C$DW$132       .dwtag  DW_TAG_TI_assign_register, DW_AT_name("IN")
    2376                            .dwattr $C$DW$132, DW_AT_location[DW_OP_regx 0x4b]
    2377                    $C$DW$133       .dwtag  DW_TAG_TI_assign_register, DW_AT_name("OUT")
    2378                            .dwattr $C$DW$133, DW_AT_location[DW_OP_regx 0x4c]
    2379                    $C$DW$134       .dwtag  DW_TAG_TI_assign_register, DW_AT_name("ACR")
    2380                            .dwattr $C$DW$134, DW_AT_location[DW_OP_regx 0x4d]
    2381                    $C$DW$135       .dwtag  DW_TAG_TI_assign_register, DW_AT_name("ADR")
    2382                            .dwattr $C$DW$135, DW_AT_location[DW_OP_regx 0x4e]
    2383                    $C$DW$136       .dwtag  DW_TAG_TI_assign_register, DW_AT_name("FADCR")
    2384                            .dwattr $C$DW$136, DW_AT_location[DW_OP_regx 0x4f]
    2385                    $C$DW$137       .dwtag  DW_TAG_TI_assign_register, DW_AT_name("FAUCR")
    2386                            .dwattr $C$DW$137, DW_AT_location[DW_OP_regx 0x50]
    2387                    $C$DW$138       .dwtag  DW_TAG_TI_assign_register, DW_AT_name("FMCR")
    2388                            .dwattr $C$DW$138, DW_AT_location[DW_OP_regx 0x51]
    2389                    $C$DW$139       .dwtag  DW_TAG_TI_assign_register, DW_AT_name("GFPGFR")
    2390                            .dwattr $C$DW$139, DW_AT_location[DW_OP_regx 0x52]
    2391                    $C$DW$140       .dwtag  DW_TAG_TI_assign_register, DW_AT_name("DIER")
    2392                            .dwattr $C$DW$140, DW_AT_location[DW_OP_regx 0x53]
    2393                    $C$DW$141       .dwtag  DW_TAG_TI_assign_register, DW_AT_name("REP")
    2394                            .dwattr $C$DW$141, DW_AT_location[DW_OP_regx 0x54]
    2395                    $C$DW$142       .dwtag  DW_TAG_TI_assign_register, DW_AT_name("TSCL")
    2396                            .dwattr $C$DW$142, DW_AT_location[DW_OP_regx 0x55]
    2397                    $C$DW$143       .dwtag  DW_TAG_TI_assign_register, DW_AT_name("TSCH")
    2398                            .dwattr $C$DW$143, DW_AT_location[DW_OP_regx 0x56]
    2399                    $C$DW$144       .dwtag  DW_TAG_TI_assign_register, DW_AT_name("ARP")
    2400                            .dwattr $C$DW$144, DW_AT_location[DW_OP_regx 0x57]
    2401                    $C$DW$145       .dwtag  DW_TAG_TI_assign_register, DW_AT_name("ILC")
    2402                            .dwattr $C$DW$145, DW_AT_location[DW_OP_regx 0x58]
    2403                    $C$DW$146       .dwtag  DW_TAG_TI_assign_register, DW_AT_name("RILC")
    2404                            .dwattr $C$DW$146, DW_AT_location[DW_OP_regx 0x59]
    2405                    $C$DW$147       .dwtag  DW_TAG_TI_assign_register, DW_AT_name("DNUM")
    2406                            .dwattr $C$DW$147, DW_AT_location[DW_OP_regx 0x5a]
    2407                    $C$DW$148       .dwtag  DW_TAG_TI_assign_register, DW_AT_name("SSR")
    2408                            .dwattr $C$DW$148, DW_AT_location[DW_OP_regx 0x5b]
    2409                    $C$DW$149       .dwtag  DW_TAG_TI_assign_register, DW_AT_name("GPLYA")
    2410                            .dwattr $C$DW$149, DW_AT_location[DW_OP_regx 0x5c]
    2411                    $C$DW$150       .dwtag  DW_TAG_TI_assign_register, DW_AT_name("GPLYB")
    2412                            .dwattr $C$DW$150, DW_AT_location[DW_OP_regx 0x5d]
    2413                    $C$DW$151       .dwtag  DW_TAG_TI_assign_register, DW_AT_name("TSR")
    2414                            .dwattr $C$DW$151, DW_AT_location[DW_OP_regx 0x5e]
    2415                    $C$DW$152       .dwtag  DW_TAG_TI_assign_register, DW_AT_name("ITSR")
    2416                            .dwattr $C$DW$152, DW_AT_location[DW_OP_regx 0x5f]
    2417                    $C$DW$153       .dwtag  DW_TAG_TI_assign_register, DW_AT_name("NTSR")
    2418                            .dwattr $C$DW$153, DW_AT_location[DW_OP_regx 0x60]
    2419                    $C$DW$154       .dwtag  DW_TAG_TI_assign_register, DW_AT_name("EFR")
    2420                            .dwattr $C$DW$154, DW_AT_location[DW_OP_regx 0x61]
TMS320C6x Assembler PC v7.4.18 Mon Oct 30 12:06:01 2023

Tools Copyright (c) 1996-2015 Texas Instruments Incorporated
C:\Users\Lenovo\AppData\Local\Temp\1693210                           PAGE   45

    2421                    $C$DW$155       .dwtag  DW_TAG_TI_assign_register, DW_AT_name("ECR")
    2422                            .dwattr $C$DW$155, DW_AT_location[DW_OP_regx 0x62]
    2423                    $C$DW$156       .dwtag  DW_TAG_TI_assign_register, DW_AT_name("IERR")
    2424                            .dwattr $C$DW$156, DW_AT_location[DW_OP_regx 0x63]
    2425                    $C$DW$157       .dwtag  DW_TAG_TI_assign_register, DW_AT_name("DMSG")
    2426                            .dwattr $C$DW$157, DW_AT_location[DW_OP_regx 0x64]
    2427                    $C$DW$158       .dwtag  DW_TAG_TI_assign_register, DW_AT_name("CMSG")
    2428                            .dwattr $C$DW$158, DW_AT_location[DW_OP_regx 0x65]
    2429                    $C$DW$159       .dwtag  DW_TAG_TI_assign_register, DW_AT_name("DT_DMA_ADDR")
    2430                            .dwattr $C$DW$159, DW_AT_location[DW_OP_regx 0x66]
    2431                    $C$DW$160       .dwtag  DW_TAG_TI_assign_register, DW_AT_name("DT_DMA_DATA")
    2432                            .dwattr $C$DW$160, DW_AT_location[DW_OP_regx 0x67]
    2433                    $C$DW$161       .dwtag  DW_TAG_TI_assign_register, DW_AT_name("DT_DMA_CNTL")
    2434                            .dwattr $C$DW$161, DW_AT_location[DW_OP_regx 0x68]
    2435                    $C$DW$162       .dwtag  DW_TAG_TI_assign_register, DW_AT_name("TCU_CNTL")
    2436                            .dwattr $C$DW$162, DW_AT_location[DW_OP_regx 0x69]
    2437                    $C$DW$163       .dwtag  DW_TAG_TI_assign_register, DW_AT_name("RTDX_REC_CNTL")
    2438                            .dwattr $C$DW$163, DW_AT_location[DW_OP_regx 0x6a]
    2439                    $C$DW$164       .dwtag  DW_TAG_TI_assign_register, DW_AT_name("RTDX_XMT_CNTL")
    2440                            .dwattr $C$DW$164, DW_AT_location[DW_OP_regx 0x6b]
    2441                    $C$DW$165       .dwtag  DW_TAG_TI_assign_register, DW_AT_name("RTDX_CFG")
    2442                            .dwattr $C$DW$165, DW_AT_location[DW_OP_regx 0x6c]
    2443                    $C$DW$166       .dwtag  DW_TAG_TI_assign_register, DW_AT_name("RTDX_RDATA")
    2444                            .dwattr $C$DW$166, DW_AT_location[DW_OP_regx 0x6d]
    2445                    $C$DW$167       .dwtag  DW_TAG_TI_assign_register, DW_AT_name("RTDX_WDATA")
    2446                            .dwattr $C$DW$167, DW_AT_location[DW_OP_regx 0x6e]
    2447                    $C$DW$168       .dwtag  DW_TAG_TI_assign_register, DW_AT_name("RTDX_RADDR")
    2448                            .dwattr $C$DW$168, DW_AT_location[DW_OP_regx 0x6f]
    2449                    $C$DW$169       .dwtag  DW_TAG_TI_assign_register, DW_AT_name("RTDX_WADDR")
    2450                            .dwattr $C$DW$169, DW_AT_location[DW_OP_regx 0x70]
    2451                    $C$DW$170       .dwtag  DW_TAG_TI_assign_register, DW_AT_name("MFREG0")
    2452                            .dwattr $C$DW$170, DW_AT_location[DW_OP_regx 0x71]
    2453                    $C$DW$171       .dwtag  DW_TAG_TI_assign_register, DW_AT_name("DBG_STAT")
    2454                            .dwattr $C$DW$171, DW_AT_location[DW_OP_regx 0x72]
    2455                    $C$DW$172       .dwtag  DW_TAG_TI_assign_register, DW_AT_name("BRK_EN")
    2456                            .dwattr $C$DW$172, DW_AT_location[DW_OP_regx 0x73]
    2457                    $C$DW$173       .dwtag  DW_TAG_TI_assign_register, DW_AT_name("HWBP0_CNT")
    2458                            .dwattr $C$DW$173, DW_AT_location[DW_OP_regx 0x74]
    2459                    $C$DW$174       .dwtag  DW_TAG_TI_assign_register, DW_AT_name("HWBP0")
    2460                            .dwattr $C$DW$174, DW_AT_location[DW_OP_regx 0x75]
    2461                    $C$DW$175       .dwtag  DW_TAG_TI_assign_register, DW_AT_name("HWBP1")
    2462                            .dwattr $C$DW$175, DW_AT_location[DW_OP_regx 0x76]
    2463                    $C$DW$176       .dwtag  DW_TAG_TI_assign_register, DW_AT_name("HWBP2")
    2464                            .dwattr $C$DW$176, DW_AT_location[DW_OP_regx 0x77]
    2465                    $C$DW$177       .dwtag  DW_TAG_TI_assign_register, DW_AT_name("HWBP3")
    2466                            .dwattr $C$DW$177, DW_AT_location[DW_OP_regx 0x78]
    2467                    $C$DW$178       .dwtag  DW_TAG_TI_assign_register, DW_AT_name("OVERLAY")
    2468                            .dwattr $C$DW$178, DW_AT_location[DW_OP_regx 0x79]
    2469                    $C$DW$179       .dwtag  DW_TAG_TI_assign_register, DW_AT_name("PC_PROF")
    2470                            .dwattr $C$DW$179, DW_AT_location[DW_OP_regx 0x7a]
    2471                    $C$DW$180       .dwtag  DW_TAG_TI_assign_register, DW_AT_name("ATSR")
    2472                            .dwattr $C$DW$180, DW_AT_location[DW_OP_regx 0x7b]
    2473                    $C$DW$181       .dwtag  DW_TAG_TI_assign_register, DW_AT_name("TRR")
    2474                            .dwattr $C$DW$181, DW_AT_location[DW_OP_regx 0x7c]
    2475                    $C$DW$182       .dwtag  DW_TAG_TI_assign_register, DW_AT_name("TCRR")
TMS320C6x Assembler PC v7.4.18 Mon Oct 30 12:06:01 2023

Tools Copyright (c) 1996-2015 Texas Instruments Incorporated
C:\Users\Lenovo\AppData\Local\Temp\1693210                           PAGE   46

    2476                            .dwattr $C$DW$182, DW_AT_location[DW_OP_regx 0x7d]
    2477                    $C$DW$183       .dwtag  DW_TAG_TI_assign_register, DW_AT_name("DESR")
    2478                            .dwattr $C$DW$183, DW_AT_location[DW_OP_regx 0x7e]
    2479                    $C$DW$184       .dwtag  DW_TAG_TI_assign_register, DW_AT_name("DETR")
    2480                            .dwattr $C$DW$184, DW_AT_location[DW_OP_regx 0x7f]
    2481                    $C$DW$185       .dwtag  DW_TAG_TI_assign_register, DW_AT_name("CIE_RETA")
    2482                            .dwattr $C$DW$185, DW_AT_location[DW_OP_regx 0xe4]
    2483                            .dwendtag $C$DW$CU
    2484                    

No Assembly Errors, No Assembly Warnings
